(dp1
cnumpy.core.multiarray
scalar
p2
(cnumpy
dtype
p3
(S'S57'
I0
I1
tRp4
(I3
S'|'
NNNI57
I1
I0
tbS'/tv/tv_series_episode/guest_stars./tv/tv_guest_role/actor'
tRp5
g2
(g3
(S'S63'
I0
I1
tRp6
(I3
S'|'
NNNI63
I1
I0
tbS'/tv/tv_actor/guest_roles./tv/tv_guest_role/episodes_appeared_in'
tRp7
sg2
(g3
(S'S80'
I0
I1
tRp8
(I3
S'|'
NNNI80
I1
I0
tbS'/music/performance_role/track_performances./music/track_contribution/contributor'
tRp9
g2
(g3
(S'S64'
I0
I1
tRp10
(I3
S'|'
NNNI64
I1
I0
tbS'/music/artist/track_contributions./music/track_contribution/role'
tRp11
sg2
(g3
(S'S36'
I0
I1
tRp12
(I3
S'|'
NNNI36
I1
I0
tbS'/medicine/disease/prevention_factors'
tRp13
g2
(g3
(S'S66'
I0
I1
tRp14
(I3
S'|'
NNNI66
I1
I0
tbS'/medicine/condition_prevention_factors/conditions_this_may_prevent'
tRp15
sg2
(g3
(S'S94'
I0
I1
tRp16
(I3
S'|'
NNNI94
I1
I0
tbS'/organization/organization_member/member_of./organization/organization_membership/organization'
tRp17
g2
(g3
(S'S90'
I0
I1
tRp18
(I3
S'|'
NNNI90
I1
I0
tbS'/organization/membership_organization/members./organization/organization_membership/member'
tRp19
sg2
(g3
(S'S66'
I0
I1
tRp20
(I3
S'|'
NNNI66
I1
I0
tbS'/sports/sports_team/roster./soccer/football_roster_position/player'
tRp21
g2
(g3
(S'S68'
I0
I1
tRp22
(I3
S'|'
NNNI68
I1
I0
tbS'/soccer/football_player/current_team./sports/sports_team_roster/team'
tRp23
sg2
(g3
(S'S45'
I0
I1
tRp24
(I3
S'|'
NNNI45
I1
I0
tbS'/business/company_type/companies_of_this_type'
tRp25
g2
(g3
(S'S42'
I0
I1
tRp26
(I3
S'|'
NNNI42
I1
I0
tbS'/organization/organization/legal_structure'
tRp27
sg2
(g3
(S'S63'
I0
I1
tRp28
(I3
S'|'
NNNI63
I1
I0
tbS'/tv/tv_program/regular_cast./tv/regular_tv_appearance/character'
tRp29
g2
(g3
(S'S72'
I0
I1
tRp30
(I3
S'|'
NNNI72
I1
I0
tbS'/tv/tv_character/appeared_in_tv_program./tv/regular_tv_appearance/series'
tRp31
sg2
(g3
(S'S70'
I0
I1
tRp32
(I3
S'|'
NNNI70
I1
I0
tbS'/base/popstra/religion/membership./base/popstra/religion_choice/member'
tRp33
g2
(g3
(S'S71'
I0
I1
tRp34
(I3
S'|'
NNNI71
I1
I0
tbS'/base/popstra/celebrity/religion./base/popstra/religion_choice/religion'
tRp35
sg2
(g3
(S'S108'
I0
I1
tRp36
(I3
S'|'
NNNI108
I1
I0
tbS'/government/politician/government_positions_held./government/government_position_held/jurisdiction_of_office'
tRp37
g2
(g3
(S'S108'
I0
I1
tRp38
(I3
S'|'
NNNI108
I1
I0
tbS'/government/governmental_jurisdiction/governing_officials./government/government_position_held/office_holder'
tRp39
sg2
(g3
(S'S44'
I0
I1
tRp40
(I3
S'|'
NNNI44
I1
I0
tbS'/computer/programming_language/influenced_by'
tRp41
g2
(g3
(S'S41'
I0
I1
tRp42
(I3
S'|'
NNNI41
I1
I0
tbS'/computer/programming_language/influenced'
tRp43
sg2
(g3
(S'S43'
I0
I1
tRp44
(I3
S'|'
NNNI43
I1
I0
tbS'/base/folklore/mythology/mythical_creatures'
tRp45
g2
(g3
(S'S42'
I0
I1
tRp46
(I3
S'|'
NNNI42
I1
I0
tbS'/base/folklore/mythical_creature/mythology'
tRp47
sg2
(g3
(S'S52'
I0
I1
tRp48
(I3
S'|'
NNNI52
I1
I0
tbS'/cvg/game_character/games./cvg/game_performance/game'
tRp49
g2
(g3
(S'S66'
I0
I1
tRp50
(I3
S'|'
NNNI66
I1
I0
tbS'/cvg/computer_videogame/characters./cvg/game_performance/character'
tRp51
sg2
(g3
(S'S88'
I0
I1
tRp52
(I3
S'|'
NNNI88
I1
I0
tbS'/sports/sports_team/roster./american_football/football_historical_roster_position/player'
tRp53
g2
(g3
(S'S79'
I0
I1
tRp54
(I3
S'|'
NNNI79
I1
I0
tbS'/american_football/football_player/former_teams./sports/sports_team_roster/team'
tRp55
sg2
(g3
(S'S38'
I0
I1
tRp56
(I3
S'|'
NNNI38
I1
I0
tbS'/location/neighborhood/neighborhood_of'
tRp57
g2
(g3
(S'S48'
I0
I1
tRp58
(I3
S'|'
NNNI48
I1
I0
tbS'/location/place_with_neighborhoods/neighborhoods'
tRp59
sg2
(g3
(S'S41'
I0
I1
tRp60
(I3
S'|'
NNNI41
I1
I0
tbS'/base/onephylogeny/type_of_thing/includes'
tRp61
g2
(g3
(S'S44'
I0
I1
tRp62
(I3
S'|'
NNNI44
I1
I0
tbS'/base/onephylogeny/type_of_thing/included_in'
tRp63
sg2
(g3
(S'S72'
I0
I1
tRp64
(I3
S'|'
NNNI72
I1
I0
tbS'/sports/sports_team/roster./basketball/basketball_roster_position/player'
tRp65
g2
(g3
(S'S66'
I0
I1
tRp66
(I3
S'|'
NNNI66
I1
I0
tbS'/basketball/basketball_player/team./sports/sports_team_roster/team'
tRp67
sg2
(g3
(S'S95'
I0
I1
tRp68
(I3
S'|'
NNNI95
I1
I0
tbS'/government/political_district/representatives./government/government_position_held/basic_title'
tRp69
g2
(g3
(S'S110'
I0
I1
tRp70
(I3
S'|'
NNNI110
I1
I0
tbS'/government/government_office_category/officeholders./government/government_position_held/district_represented'
tRp71
sg2
(g3
(S'S39'
I0
I1
tRp72
(I3
S'|'
NNNI39
I1
I0
tbS'/astronomy/star_system/planetary_system'
tRp73
g2
(g3
(S'S39'
I0
I1
tRp74
(I3
S'|'
NNNI39
I1
I0
tbS'/astronomy/star_system_body/star_system'
tRp75
sg2
(g3
(S'S68'
I0
I1
tRp76
(I3
S'|'
NNNI68
I1
I0
tbS'/base/popstra/organization/supporter./base/popstra/support/supporter'
tRp77
g2
(g3
(S'S78'
I0
I1
tRp78
(I3
S'|'
NNNI78
I1
I0
tbS'/base/popstra/celebrity/supporter./base/popstra/support/supported_organization'
tRp79
sg2
(g3
(S'S73'
I0
I1
tRp80
(I3
S'|'
NNNI73
I1
I0
tbS'/media_common/dedicatee/dedications./media_common/dedication/dedicated_by'
tRp81
g2
(g3
(S'S73'
I0
I1
tRp82
(I3
S'|'
NNNI73
I1
I0
tbS'/media_common/dedicator/dedications./media_common/dedication/dedicated_to'
tRp83
sg2
(g3
(S'S85'
I0
I1
tRp84
(I3
S'|'
NNNI85
I1
I0
tbS'/sports/pro_athlete/teams./american_football/football_historical_roster_position/team'
tRp85
g2
(g3
(S'S84'
I0
I1
tRp86
(I3
S'|'
NNNI84
I1
I0
tbS'/american_football/football_team/historical_roster./sports/sports_team_roster/player'
tRp87
sg2
(g3
(S'S82'
I0
I1
tRp88
(I3
S'|'
NNNI82
I1
I0
tbS'/education/educational_degree/people_with_this_degree./education/education/student'
tRp89
g2
(g3
(S'S52'
I0
I1
tRp90
(I3
S'|'
NNNI52
I1
I0
tbS'/people/person/education./education/education/degree'
tRp91
sg2
(g3
(S'S37'
I0
I1
tRp92
(I3
S'|'
NNNI37
I1
I0
tbS'/biology/animal_breed/place_of_origin'
tRp93
g2
(g3
(S'S45'
I0
I1
tRp94
(I3
S'|'
NNNI45
I1
I0
tbS'/biology/breed_origin/breeds_originating_here'
tRp95
sg2
(g3
(S'S54'
I0
I1
tRp96
(I3
S'|'
NNNI54
I1
I0
tbS'/fictional_universe/fictional_character/place_of_birth'
tRp97
g2
(g3
(S'S68'
I0
I1
tRp98
(I3
S'|'
NNNI68
I1
I0
tbS'/fictional_universe/fictional_setting/fictional_characters_born_here'
tRp99
sg2
(g3
(S'S38'
I0
I1
tRp100
(I3
S'|'
NNNI38
I1
I0
tbS'/media_common/media_genre/child_genres'
tRp101
g2
(g3
(S'S38'
I0
I1
tRp102
(I3
S'|'
NNNI38
I1
I0
tbS'/media_common/media_genre/parent_genre'
tRp103
sg2
(g3
(S'S70'
I0
I1
tRp104
(I3
S'|'
NNNI70
I1
I0
tbS'/base/popstra/celebrity/shops_at./base/popstra/shopping_choice/company'
tRp105
g2
(g3
(S'S75'
I0
I1
tRp106
(I3
S'|'
NNNI75
I1
I0
tbS'/base/popstra/company/shopping_choice./base/popstra/shopping_choice/shopper'
tRp107
sg2
(g3
(S'S32'
I0
I1
tRp108
(I3
S'|'
NNNI32
I1
I0
tbS'/finance/currency/countries_used'
tRp109
g2
(g3
(S'S31'
I0
I1
tRp110
(I3
S'|'
NNNI31
I1
I0
tbS'/location/country/currency_used'
tRp111
sg2
(g3
(S'S37'
I0
I1
tRp112
(I3
S'|'
NNNI37
I1
I0
tbS'/visual_art/visual_art_genre/artworks'
tRp113
g2
(g3
(S'S29'
I0
I1
tRp114
(I3
S'|'
NNNI29
I1
I0
tbS'/visual_art/artwork/art_genre'
tRp115
sg2
(g3
(S'S134'
I0
I1
tRp116
(I3
S'|'
NNNI134
I1
I0
tbS'/location/capital_of_administrative_division/capital_of./location/administrative_division_capital_relationship/administrative_division'
tRp117
g2
(g3
(S'S104'
I0
I1
tRp118
(I3
S'|'
NNNI104
I1
I0
tbS'/location/administrative_division/capital./location/administrative_division_capital_relationship/capital'
tRp119
sg2
(g3
(S'S20'
I0
I1
tRp120
(I3
S'|'
NNNI20
I1
I0
tbS'/food/diet/followers'
tRp121
g2
(g3
(S'S32'
I0
I1
tRp122
(I3
S'|'
NNNI32
I1
I0
tbS'/food/diet_follower/follows_diet'
tRp123
sg2
(g3
(S'S89'
I0
I1
tRp124
(I3
S'|'
NNNI89
I1
I0
tbS'/tv/special_tv_performance_type/starring_performances./tv/regular_tv_appearance/character'
tRp125
g2
(g3
(S'S90'
I0
I1
tRp126
(I3
S'|'
NNNI90
I1
I0
tbS'/tv/tv_character/appeared_in_tv_program./tv/regular_tv_appearance/special_performance_type'
tRp127
sg2
(g3
(S'S56'
I0
I1
tRp128
(I3
S'|'
NNNI56
I1
I0
tbS'/organization/organization_founder/organizations_founded'
tRp129
g2
(g3
(S'S35'
I0
I1
tRp130
(I3
S'|'
NNNI35
I1
I0
tbS'/organization/organization/founders'
tRp131
sg2
(g3
(S'S62'
I0
I1
tRp132
(I3
S'|'
NNNI62
I1
I0
tbS'/organization/organization_sector/organizations_in_this_sector'
tRp133
g2
(g3
(S'S34'
I0
I1
tRp134
(I3
S'|'
NNNI34
I1
I0
tbS'/organization/organization/sectors'
tRp135
sg2
(g3
(S'S75'
I0
I1
tRp136
(I3
S'|'
NNNI75
I1
I0
tbS'/biology/breed_group/breeds_in_this_group./biology/breed_registration/breed'
tRp137
g2
(g3
(S'S77'
I0
I1
tRp138
(I3
S'|'
NNNI77
I1
I0
tbS'/biology/animal_breed/registered_with./biology/breed_registration/breed_group'
tRp139
sg2
(g3
(S'S45'
I0
I1
tRp140
(I3
S'|'
NNNI45
I1
I0
tbS'/award/award_category/disciplines_or_subjects'
tRp141
g2
(g3
(S'S49'
I0
I1
tRp142
(I3
S'|'
NNNI49
I1
I0
tbS'/award/award_discipline/awards_in_this_discipline'
tRp143
sg2
(g3
(S'S97'
I0
I1
tRp144
(I3
S'|'
NNNI97
I1
I0
tbS'/base/yalebase/secret_society_member/belonged_to./base/yalebase/secret_society_membership/society'
tRp145
g2
(g3
(S'S93'
I0
I1
tRp146
(I3
S'|'
NNNI93
I1
I0
tbS'/base/yalebase/secret_society/notable_members./base/yalebase/secret_society_membership/member'
tRp147
sg2
(g3
(S'S57'
I0
I1
tRp148
(I3
S'|'
NNNI57
I1
I0
tbS'/government/governmental_body/body_this_is_a_component_of'
tRp149
g2
(g3
(S'S46'
I0
I1
tRp150
(I3
S'|'
NNNI46
I1
I0
tbS'/government/governmental_body/component_bodies'
tRp151
sg107
g105
sg2
(g3
(S'S84'
I0
I1
tRp152
(I3
S'|'
NNNI84
I1
I0
tbS'/sports/professional_sports_team/draft_picks./sports/sports_league_draft_pick/player'
tRp153
g2
(g3
(S'S69'
I0
I1
tRp154
(I3
S'|'
NNNI69
I1
I0
tbS'/sports/drafted_athlete/drafted./sports/sports_league_draft_pick/team'
tRp155
sg2
(g3
(S'S29'
I0
I1
tRp156
(I3
S'|'
NNNI29
I1
I0
tbS'/location/location/time_zones'
tRp157
g2
(g3
(S'S43'
I0
I1
tRp158
(I3
S'|'
NNNI43
I1
I0
tbS'/time/time_zone/locations_in_this_time_zone'
tRp159
sg2
(g3
(S'S35'
I0
I1
tRp160
(I3
S'|'
NNNI35
I1
I0
tbS'/medicine/disease/includes_diseases'
tRp161
g2
(g3
(S'S32'
I0
I1
tRp162
(I3
S'|'
NNNI32
I1
I0
tbS'/medicine/disease/parent_disease'
tRp163
sg2
(g3
(S'S68'
I0
I1
tRp164
(I3
S'|'
NNNI68
I1
I0
tbS'/award/award_category/long_lists./award/long_list_nomination/nominee'
tRp165
g2
(g3
(S'S80'
I0
I1
tRp166
(I3
S'|'
NNNI80
I1
I0
tbS'/award/long_list_nominee/long_list_nominations./award/long_list_nomination/award'
tRp167
sg2
(g3
(S'S43'
I0
I1
tRp168
(I3
S'|'
NNNI43
I1
I0
tbS'/book/school_or_movement/associated_authors'
tRp169
g2
(g3
(S'S31'
I0
I1
tRp170
(I3
S'|'
NNNI31
I1
I0
tbS'/book/author/school_or_movement'
tRp171
sg2
(g3
(S'S31'
I0
I1
tRp172
(I3
S'|'
NNNI31
I1
I0
tbS'/cvg/computer_videogame/prequel'
tRp173
g2
(g3
(S'S30'
I0
I1
tRp174
(I3
S'|'
NNNI30
I1
I0
tbS'/cvg/computer_videogame/sequel'
tRp175
sg2
(g3
(S'S61'
I0
I1
tRp176
(I3
S'|'
NNNI61
I1
I0
tbS'/internet/website/owner_new./internet/website_ownership/owner'
tRp177
g2
(g3
(S'S78'
I0
I1
tRp178
(I3
S'|'
NNNI78
I1
I0
tbS'/internet/website_owner/websites_owned_new./internet/website_ownership/website'
tRp179
sg2
(g3
(S'S28'
I0
I1
tRp180
(I3
S'|'
NNNI28
I1
I0
tbS'/tv/tv_program/spun_off_from'
tRp181
g2
(g3
(S'S24'
I0
I1
tRp182
(I3
S'|'
NNNI24
I1
I0
tbS'/tv/tv_program/spin_offs'
tRp183
sg2
(g3
(S'S34'
I0
I1
tRp184
(I3
S'|'
NNNI34
I1
I0
tbS'/location/country/languages_spoken'
tRp185
g2
(g3
(S'S44'
I0
I1
tRp186
(I3
S'|'
NNNI44
I1
I0
tbS'/language/human_language/countries_spoken_in'
tRp187
sg2
(g3
(S'S81'
I0
I1
tRp188
(I3
S'|'
NNNI81
I1
I0
tbS'/film/special_film_performance_type/film_performance_type./film/performance/actor'
tRp189
g2
(g3
(S'S59'
I0
I1
tRp190
(I3
S'|'
NNNI59
I1
I0
tbS'/film/actor/film./film/performance/special_performance_type'
tRp191
sg2
(g3
(S'S50'
I0
I1
tRp192
(I3
S'|'
NNNI50
I1
I0
tbS'/medicine/infectious_disease/infectious_agent_type'
tRp193
g2
(g3
(S'S43'
I0
I1
tRp194
(I3
S'|'
NNNI43
I1
I0
tbS'/medicine/type_of_infectious_agent/diseases'
tRp195
sg2
(g3
(S'S70'
I0
I1
tRp196
(I3
S'|'
NNNI70
I1
I0
tbS'/base/thoroughbredracing/thoroughbred_racehorse_sex/horses_of_this_sex'
tRp197
g2
(g3
(S'S51'
I0
I1
tRp198
(I3
S'|'
NNNI51
I1
I0
tbS'/base/thoroughbredracing/thoroughbred_racehorse/sex'
tRp199
sg2
(g3
(S'S21'
I0
I1
tRp200
(I3
S'|'
NNNI21
I1
I0
tbS'/tv/tv_genre/programs'
tRp201
g2
(g3
(S'S20'
I0
I1
tRp202
(I3
S'|'
NNNI20
I1
I0
tbS'/tv/tv_program/genre'
tRp203
sg2
(g3
(S'S60'
I0
I1
tRp204
(I3
S'|'
NNNI60
I1
I0
tbS'/music/group_member/membership./music/group_membership/group'
tRp205
g2
(g3
(S'S58'
I0
I1
tRp206
(I3
S'|'
NNNI58
I1
I0
tbS'/music/musical_group/member./music/group_membership/member'
tRp207
sg2
(g3
(S'S36'
I0
I1
tRp208
(I3
S'|'
NNNI36
I1
I0
tbS'/film/film_genre/films_in_this_genre'
tRp209
g2
(g3
(S'S16'
I0
I1
tRp210
(I3
S'|'
NNNI16
I1
I0
tbS'/film/film/genre'
tRp211
sg2
(g3
(S'S36'
I0
I1
tRp212
(I3
S'|'
NNNI36
I1
I0
tbS'/architecture/type_of_museum/museums'
tRp213
g2
(g3
(S'S35'
I0
I1
tRp214
(I3
S'|'
NNNI35
I1
I0
tbS'/architecture/museum/type_of_museum'
tRp215
sg2
(g3
(S'S49'
I0
I1
tRp216
(I3
S'|'
NNNI49
I1
I0
tbS'/fictional_universe/fictional_universe/characters'
tRp217
g2
(g3
(S'S76'
I0
I1
tRp218
(I3
S'|'
NNNI76
I1
I0
tbS'/fictional_universe/fictional_character/appears_in_these_fictional_universes'
tRp219
sg2
(g3
(S'S81'
I0
I1
tRp220
(I3
S'|'
NNNI81
I1
I0
tbS'/business/consumer_product/company./business/company_product_relationship/company'
tRp221
g2
(g3
(S'S91'
I0
I1
tRp222
(I3
S'|'
NNNI91
I1
I0
tbS'/business/consumer_company/products./business/company_product_relationship/consumer_product'
tRp223
sg2
(g3
(S'S91'
I0
I1
tRp224
(I3
S'|'
NNNI91
I1
I0
tbS'/sports/sports_position/players./american_football/football_historical_roster_position/team'
tRp225
g2
(g3
(S'S86'
I0
I1
tRp226
(I3
S'|'
NNNI86
I1
I0
tbS'/american_football/football_team/historical_roster./sports/sports_team_roster/position'
tRp227
sg2
(g3
(S'S32'
I0
I1
tRp228
(I3
S'|'
NNNI32
I1
I0
tbS'/film/film/film_art_direction_by'
tRp229
g2
(g3
(S'S42'
I0
I1
tRp230
(I3
S'|'
NNNI42
I1
I0
tbS'/film/film_art_director/films_art_directed'
tRp231
sg2
(g3
(S'S71'
I0
I1
tRp232
(I3
S'|'
NNNI71
I1
I0
tbS'/ice_hockey/hockey_player/former_team_s./sports/sports_team_roster/team'
tRp233
g2
(g3
(S'S77'
I0
I1
tRp234
(I3
S'|'
NNNI77
I1
I0
tbS'/sports/sports_team/roster./ice_hockey/hockey_previous_roster_position/player'
tRp235
sg2
(g3
(S'S35'
I0
I1
tRp236
(I3
S'|'
NNNI35
I1
I0
tbS'/base/locations/countries/continent'
tRp237
g2
(g3
(S'S43'
I0
I1
tRp238
(I3
S'|'
NNNI43
I1
I0
tbS'/base/locations/continents/countries_within'
tRp239
sg2
(g3
(S'S31'
I0
I1
tRp240
(I3
S'|'
NNNI31
I1
I0
tbS'/sports/sport/related_equipment'
tRp241
g2
(g3
(S'S39'
I0
I1
tRp242
(I3
S'|'
NNNI39
I1
I0
tbS'/sports/sports_equipment/sport_used_for'
tRp243
sg2
(g3
(S'S19'
I0
I1
tRp244
(I3
S'|'
NNNI19
I1
I0
tbS'/music/artist/label'
tRp245
g2
(g3
(S'S26'
I0
I1
tRp246
(I3
S'|'
NNNI26
I1
I0
tbS'/music/record_label/artist'
tRp247
sg2
(g3
(S'S29'
I0
I1
tRp248
(I3
S'|'
NNNI29
I1
I0
tbS'/people/cause_of_death/people'
tRp249
g2
(g3
(S'S38'
I0
I1
tRp250
(I3
S'|'
NNNI38
I1
I0
tbS'/people/deceased_person/cause_of_death'
tRp251
sg2
(g3
(S'S72'
I0
I1
tRp252
(I3
S'|'
NNNI72
I1
I0
tbS'/business/asset_owner/assets_owned./business/asset_ownership/owned_asset'
tRp253
g2
(g3
(S'S54'
I0
I1
tRp254
(I3
S'|'
NNNI54
I1
I0
tbS'/business/asset/owners./business/asset_ownership/owner'
tRp255
sg2
(g3
(S'S61'
I0
I1
tRp256
(I3
S'|'
NNNI61
I1
I0
tbS'/base/aareas/schema/administrative_area/administrative_parent'
tRp257
g2
(g3
(S'S63'
I0
I1
tRp258
(I3
S'|'
NNNI63
I1
I0
tbS'/base/aareas/schema/administrative_area/administrative_children'
tRp259
sg2
(g3
(S'S24'
I0
I1
tRp260
(I3
S'|'
NNNI24
I1
I0
tbS'/book/book_subject/works'
tRp261
g2
(g3
(S'S27'
I0
I1
tRp262
(I3
S'|'
NNNI27
I1
I0
tbS'/book/written_work/subjects'
tRp263
sg2
(g3
(S'S44'
I0
I1
tRp264
(I3
S'|'
NNNI44
I1
I0
tbS'/base/infrastructure/power_station/fuel_type'
tRp265
g2
(g3
(S'S51'
I0
I1
tRp266
(I3
S'|'
NNNI51
I1
I0
tbS'/base/infrastructure/power_plant_type/power_station'
tRp267
sg2
(g3
(S'S75'
I0
I1
tRp268
(I3
S'|'
NNNI75
I1
I0
tbS'/projects/project_participant/projects./projects/project_participation/role'
tRp269
g2
(g3
(S'S75'
I0
I1
tRp270
(I3
S'|'
NNNI75
I1
I0
tbS'/projects/project_role/projects./projects/project_participation/participant'
tRp271
sg2
(g3
(S'S86'
I0
I1
tRp272
(I3
S'|'
NNNI86
I1
I0
tbS'/government/governmental_body/members./government/government_position_held/basic_title'
tRp273
g2
(g3
(S'S107'
I0
I1
tRp274
(I3
S'|'
NNNI107
I1
I0
tbS'/government/government_office_category/officeholders./government/government_position_held/governmental_body'
tRp275
sg2
(g3
(S'S64'
I0
I1
tRp276
(I3
S'|'
NNNI64
I1
I0
tbS'/olympics/olympic_participating_country/olympics_participated_in'
tRp277
g2
(g3
(S'S47'
I0
I1
tRp278
(I3
S'|'
NNNI47
I1
I0
tbS'/olympics/olympic_games/participating_countries'
tRp279
sg2
(g3
(S'S61'
I0
I1
tRp280
(I3
S'|'
NNNI61
I1
I0
tbS'/common/annotation_category/annotations./common/webpage/topic'
tRp281
g2
(g3
(S'S46'
I0
I1
tRp282
(I3
S'|'
NNNI46
I1
I0
tbS'/common/topic/webpage./common/webpage/category'
tRp283
sg2
(g3
(S'S33'
I0
I1
tRp284
(I3
S'|'
NNNI33
I1
I0
tbS'/soccer/football_position/players'
tRp285
g2
(g3
(S'S34'
I0
I1
tRp286
(I3
S'|'
NNNI34
I1
I0
tbS'/soccer/football_player/position_s'
tRp287
sg2
(g3
(S'S122'
I0
I1
tRp288
(I3
S'|'
NNNI122
I1
I0
tbS'/user/alexbl/honorary_title/titled_person/honorary_title./user/alexbl/honorary_title/honorary_title_holding/honorary_title'
tRp289
g2
(g3
(S'S122'
I0
I1
tRp290
(I3
S'|'
NNNI122
I1
I0
tbS'/user/alexbl/honorary_title/honorary_title/titled_people./user/alexbl/honorary_title/honorary_title_holding/conferred_upon'
tRp291
sg2
(g3
(S'S50'
I0
I1
tRp292
(I3
S'|'
NNNI50
I1
I0
tbS'/food/dietary_restriction/incompatible_ingredients'
tRp293
g2
(g3
(S'S55'
I0
I1
tRp294
(I3
S'|'
NNNI55
I1
I0
tbS'/food/ingredient/incompatible_with_dietary_restrictions'
tRp295
sg2
(g3
(S'S59'
I0
I1
tRp296
(I3
S'|'
NNNI59
I1
I0
tbS'/film/film_crewmember/films_crewed./film/film_crew_gig/film'
tRp297
g2
(g3
(S'S52'
I0
I1
tRp298
(I3
S'|'
NNNI52
I1
I0
tbS'/film/film/other_crew./film/film_crew_gig/crewmember'
tRp299
sg2
(g3
(S'S79'
I0
I1
tRp300
(I3
S'|'
NNNI79
I1
I0
tbS'/base/argumentmaps/morally_disputed_activity/instance_of_abstract_moral_dispute'
tRp301
g2
(g3
(S'S62'
I0
I1
tRp302
(I3
S'|'
NNNI62
I1
I0
tbS'/base/argumentmaps/abstract_moral_dispute/particular_instances'
tRp303
sg2
(g3
(S'S77'
I0
I1
tRp304
(I3
S'|'
NNNI77
I1
I0
tbS'/olympics/olympic_games/medals_awarded./olympics/olympic_medal_honor/medalist'
tRp305
g2
(g3
(S'S75'
I0
I1
tRp306
(I3
S'|'
NNNI75
I1
I0
tbS'/olympics/olympic_athlete/medals_won./olympics/olympic_medal_honor/olympics'
tRp307
sg2
(g3
(S'S20'
I0
I1
tRp308
(I3
S'|'
NNNI20
I1
I0
tbS'/music/genre/artists'
tRp309
g2
(g3
(S'S19'
I0
I1
tRp310
(I3
S'|'
NNNI19
I1
I0
tbS'/music/artist/genre'
tRp311
sg2
(g3
(S'S78'
I0
I1
tRp312
(I3
S'|'
NNNI78
I1
I0
tbS'/ice_hockey/hockey_player/current_team./ice_hockey/hockey_roster_position/team'
tRp313
g2
(g3
(S'S80'
I0
I1
tRp314
(I3
S'|'
NNNI80
I1
I0
tbS'/ice_hockey/hockey_team/current_roster./ice_hockey/hockey_roster_position/player'
tRp315
sg2
(g3
(S'S39'
I0
I1
tRp316
(I3
S'|'
NNNI39
I1
I0
tbS'/location/country/first_level_divisions'
tRp317
g2
(g3
(S'S57'
I0
I1
tRp318
(I3
S'|'
NNNI57
I1
I0
tbS'/location/administrative_division/first_level_division_of'
tRp319
sg2
(g3
(S'S25'
I0
I1
tRp320
(I3
S'|'
NNNI25
I1
I0
tbS'/broadcast/artist/content'
tRp321
g2
(g3
(S'S25'
I0
I1
tRp322
(I3
S'|'
NNNI25
I1
I0
tbS'/broadcast/content/artist'
tRp323
sg2
(g3
(S'S99'
I0
I1
tRp324
(I3
S'|'
NNNI99
I1
I0
tbS'/government/political_party/politicians_in_this_party./government/political_party_tenure/politician'
tRp325
g2
(g3
(S'S69'
I0
I1
tRp326
(I3
S'|'
NNNI69
I1
I0
tbS'/government/politician/party./government/political_party_tenure/party'
tRp327
sg2
(g3
(S'S80'
I0
I1
tRp328
(I3
S'|'
NNNI80
I1
I0
tbS'/basketball/basketball_team/roster./basketball/basketball_roster_position/player'
tRp329
g2
(g3
(S'S78'
I0
I1
tRp330
(I3
S'|'
NNNI78
I1
I0
tbS'/basketball/basketball_player/team./basketball/basketball_roster_position/team'
tRp331
sg2
(g3
(S'S41'
I0
I1
tRp332
(I3
S'|'
NNNI41
I1
I0
tbS'/finance/currency/countries_formerly_used'
tRp333
g2
(g3
(S'S40'
I0
I1
tRp334
(I3
S'|'
NNNI40
I1
I0
tbS'/location/country/currency_formerly_used'
tRp335
sg2
(g3
(S'S41'
I0
I1
tRp336
(I3
S'|'
NNNI41
I1
I0
tbS'/medicine/medical_treatment/used_to_treat'
tRp337
g2
(g3
(S'S28'
I0
I1
tRp338
(I3
S'|'
NNNI28
I1
I0
tbS'/medicine/disease/treatments'
tRp339
sg2
(g3
(S'S57'
I0
I1
tRp340
(I3
S'|'
NNNI57
I1
I0
tbS'/people/person/education./education/education/institution'
tRp341
g2
(g3
(S'S82'
I0
I1
tRp342
(I3
S'|'
NNNI82
I1
I0
tbS'/education/educational_institution/students_graduates./education/education/student'
tRp343
sg2
(g3
(S'S28'
I0
I1
tRp344
(I3
S'|'
NNNI28
I1
I0
tbS'/tv/tv_series_episode/writer'
tRp345
g2
(g3
(S'S30'
I0
I1
tRp346
(I3
S'|'
NNNI30
I1
I0
tbS'/tv/tv_writer/episodes_written'
tRp347
sg2
(g3
(S'S71'
I0
I1
tRp348
(I3
S'|'
NNNI71
I1
I0
tbS'/sports/sports_position/players./soccer/football_roster_position/player'
tRp349
g2
(g3
(S'S72'
I0
I1
tRp350
(I3
S'|'
NNNI72
I1
I0
tbS'/soccer/football_player/current_team./sports/sports_team_roster/position'
tRp351
sg2
(g3
(S'S68'
I0
I1
tRp352
(I3
S'|'
NNNI68
I1
I0
tbS'/royalty/noble_person/titles./royalty/noble_title_tenure/noble_title'
tRp353
g2
(g3
(S'S69'
I0
I1
tRp354
(I3
S'|'
NNNI69
I1
I0
tbS'/royalty/noble_title/holders./royalty/noble_title_tenure/noble_person'
tRp355
sg2
(g3
(S'S69'
I0
I1
tRp356
(I3
S'|'
NNNI69
I1
I0
tbS'/sports/pro_athlete/teams./basketball/basketball_roster_position/team'
tRp357
g2
(g3
(S'S68'
I0
I1
tRp358
(I3
S'|'
NNNI68
I1
I0
tbS'/basketball/basketball_team/roster./sports/sports_team_roster/player'
tRp359
sg2
(g3
(S'S71'
I0
I1
tRp360
(I3
S'|'
NNNI71
I1
I0
tbS'/tv/tv_series_episode/producers./tv/tv_producer_episode_credit/producer'
tRp361
g2
(g3
(S'S75'
I0
I1
tRp362
(I3
S'|'
NNNI75
I1
I0
tbS'/tv/tv_producer/tv_episodes_produced./tv/tv_producer_episode_credit/episode'
tRp363
sg2
(g3
(S'S41'
I0
I1
tRp364
(I3
S'|'
NNNI41
I1
I0
tbS'/comic_books/comic_book_series/created_by'
tRp365
g2
(g3
(S'S46'
I0
I1
tRp366
(I3
S'|'
NNNI46
I1
I0
tbS'/comic_books/comic_book_creator/series_created'
tRp367
sg2
(g3
(S'S103'
I0
I1
tRp368
(I3
S'|'
NNNI103
I1
I0
tbS'/government/government_office_category/officeholders./government/government_position_held/office_holder'
tRp369
g2
(g3
(S'S97'
I0
I1
tRp370
(I3
S'|'
NNNI97
I1
I0
tbS'/government/politician/government_positions_held./government/government_position_held/basic_title'
tRp371
sg83
g81
sg2
(g3
(S'S30'
I0
I1
tRp372
(I3
S'|'
NNNI30
I1
I0
tbS'/broadcast/radio_station/owner'
tRp373
g2
(g3
(S'S45'
I0
I1
tRp374
(I3
S'|'
NNNI45
I1
I0
tbS'/broadcast/radio_station_owner/radio_stations'
tRp375
sg23
g21
sg2
(g3
(S'S34'
I0
I1
tRp376
(I3
S'|'
NNNI34
I1
I0
tbS'/film/film_festival_event/festival'
tRp377
g2
(g3
(S'S40'
I0
I1
tRp378
(I3
S'|'
NNNI40
I1
I0
tbS'/film/film_festival/individual_festivals'
tRp379
sg2
(g3
(S'S31'
I0
I1
tRp380
(I3
S'|'
NNNI31
I1
I0
tbS'/broadcast/radio_station/format'
tRp381
g2
(g3
(S'S32'
I0
I1
tRp382
(I3
S'|'
NNNI32
I1
I0
tbS'/broadcast/radio_format/stations'
tRp383
sg2
(g3
(S'S74'
I0
I1
tRp384
(I3
S'|'
NNNI74
I1
I0
tbS'/sports/pro_athlete/teams./american_football/football_roster_position/team'
tRp385
g2
(g3
(S'S81'
I0
I1
tRp386
(I3
S'|'
NNNI81
I1
I0
tbS'/american_football/football_team/current_roster./sports/sports_team_roster/player'
tRp387
sg2
(g3
(S'S76'
I0
I1
tRp388
(I3
S'|'
NNNI76
I1
I0
tbS'/fictional_universe/fictional_character_creator/fictional_characters_created'
tRp389
g2
(g3
(S'S60'
I0
I1
tRp390
(I3
S'|'
NNNI60
I1
I0
tbS'/fictional_universe/fictional_character/character_created_by'
tRp391
sg2
(g3
(S'S85'
I0
I1
tRp392
(I3
S'|'
NNNI85
I1
I0
tbS'/tv/special_tv_performance_type/starring_performances./tv/regular_tv_appearance/actor'
tRp393
g2
(g3
(S'S78'
I0
I1
tRp394
(I3
S'|'
NNNI78
I1
I0
tbS'/tv/tv_actor/starring_roles./tv/regular_tv_appearance/special_performance_type'
tRp395
sg2
(g3
(S'S41'
I0
I1
tRp396
(I3
S'|'
NNNI41
I1
I0
tbS'/ice_hockey/hockey_player/hockey_position'
tRp397
g2
(g3
(S'S35'
I0
I1
tRp398
(I3
S'|'
NNNI35
I1
I0
tbS'/ice_hockey/hockey_position/players'
tRp399
sg2
(g3
(S'S73'
I0
I1
tRp400
(I3
S'|'
NNNI73
I1
I0
tbS'/music/artist/contribution./music/recording_contribution/performance_role'
tRp401
g2
(g3
(S'S84'
I0
I1
tRp402
(I3
S'|'
NNNI84
I1
I0
tbS'/music/performance_role/guest_performances./music/recording_contribution/contributor'
tRp403
sg2
(g3
(S'S27'
I0
I1
tRp404
(I3
S'|'
NNNI27
I1
I0
tbS'/tv/tv_series_season/series'
tRp405
g2
(g3
(S'S22'
I0
I1
tRp406
(I3
S'|'
NNNI22
I1
I0
tbS'/tv/tv_program/seasons'
tRp407
sg2
(g3
(S'S63'
I0
I1
tRp408
(I3
S'|'
NNNI63
I1
I0
tbS'/tv/tv_actor/starring_roles./tv/regular_tv_appearance/character'
tRp409
g2
(g3
(S'S71'
I0
I1
tRp410
(I3
S'|'
NNNI71
I1
I0
tbS'/tv/tv_character/appeared_in_tv_program./tv/regular_tv_appearance/actor'
tRp411
sg2
(g3
(S'S116'
I0
I1
tRp412
(I3
S'|'
NNNI116
I1
I0
tbS'/base/contractbridge/bridge_player/second_place_finish./base/contractbridge/bridge_tournament_standings/second_place'
tRp413
g413
sg2
(g3
(S'S25'
I0
I1
tRp414
(I3
S'|'
NNNI25
I1
I0
tbS'/award/award/presented_by'
tRp415
g2
(g3
(S'S53'
I0
I1
tRp416
(I3
S'|'
NNNI53
I1
I0
tbS'/award/award_presenting_organization/awards_presented'
tRp417
sg2
(g3
(S'S47'
I0
I1
tRp418
(I3
S'|'
NNNI47
I1
I0
tbS'/people/cause_of_death/includes_causes_of_death'
tRp419
g2
(g3
(S'S44'
I0
I1
tRp420
(I3
S'|'
NNNI44
I1
I0
tbS'/people/cause_of_death/parent_cause_of_death'
tRp421
sg2
(g3
(S'S101'
I0
I1
tRp422
(I3
S'|'
NNNI101
I1
I0
tbS'/base/localfood/seasonal_month/produce_available./base/localfood/produce_availability/seasonal_months'
tRp423
g423
sg2
(g3
(S'S75'
I0
I1
tRp424
(I3
S'|'
NNNI75
I1
I0
tbS'/award/award_nominated_work/award_nominations./award/award_nomination/award'
tRp425
g2
(g3
(S'S68'
I0
I1
tRp426
(I3
S'|'
NNNI68
I1
I0
tbS'/award/award_category/nominees./award/award_nomination/nominated_for'
tRp427
sg123
g121
sg2
(g3
(S'S36'
I0
I1
tRp428
(I3
S'|'
NNNI36
I1
I0
tbS'/religion/religion/places_of_worship'
tRp429
g2
(g3
(S'S35'
I0
I1
tRp430
(I3
S'|'
NNNI35
I1
I0
tbS'/religion/place_of_worship/religion'
tRp431
sg2
(g3
(S'S70'
I0
I1
tRp432
(I3
S'|'
NNNI70
I1
I0
tbS'/royalty/noble_title/used_in./royalty/system_title_relationship/system'
tRp433
g2
(g3
(S'S75'
I0
I1
tRp434
(I3
S'|'
NNNI75
I1
I0
tbS'/royalty/system_of_nobility/titles./royalty/system_title_relationship/title'
tRp435
sg2
(g3
(S'S65'
I0
I1
tRp436
(I3
S'|'
NNNI65
I1
I0
tbS'/education/educational_institution_campus/educational_institution'
tRp437
g2
(g3
(S'S43'
I0
I1
tRp438
(I3
S'|'
NNNI43
I1
I0
tbS'/education/educational_institution/campuses'
tRp439
sg2
(g3
(S'S50'
I0
I1
tRp440
(I3
S'|'
NNNI50
I1
I0
tbS'/medicine/drug_ingredient/more_specific_ingredient'
tRp441
g2
(g3
(S'S49'
I0
I1
tRp442
(I3
S'|'
NNNI49
I1
I0
tbS'/medicine/drug_ingredient/more_general_ingredient'
tRp443
sg2
(g3
(S'S62'
I0
I1
tRp444
(I3
S'|'
NNNI62
I1
I0
tbS'/award/award_winner/awards_won./award/award_honor/award_winner'
tRp445
g445
sg2
(g3
(S'S30'
I0
I1
tRp446
(I3
S'|'
NNNI30
I1
I0
tbS'/medicine/disease/risk_factors'
tRp447
g2
(g3
(S'S30'
I0
I1
tRp448
(I3
S'|'
NNNI30
I1
I0
tbS'/medicine/risk_factor/diseases'
tRp449
sg2
(g3
(S'S52'
I0
I1
tRp450
(I3
S'|'
NNNI52
I1
I0
tbS'/base/ecology/food_web_member/belongs_to_ecosystem_s'
tRp451
g2
(g3
(S'S41'
I0
I1
tRp452
(I3
S'|'
NNNI41
I1
I0
tbS'/base/ecology/ecosystem/ecosystem_members'
tRp453
sg2
(g3
(S'S84'
I0
I1
tRp454
(I3
S'|'
NNNI84
I1
I0
tbS'/tv/tv_personality/tv_regular_appearances./tv/tv_regular_personal_appearance/program'
tRp455
g2
(g3
(S'S85'
I0
I1
tRp456
(I3
S'|'
NNNI85
I1
I0
tbS'/tv/tv_program/regular_personal_appearances./tv/tv_regular_personal_appearance/person'
tRp457
sg291
g289
sg339
g337
sg2
(g3
(S'S33'
I0
I1
tRp458
(I3
S'|'
NNNI33
I1
I0
tbS'/film/film_series/films_in_series'
tRp459
g2
(g3
(S'S22'
I0
I1
tRp460
(I3
S'|'
NNNI22
I1
I0
tbS'/film/film/film_series'
tRp461
sg2
(g3
(S'S31'
I0
I1
tRp462
(I3
S'|'
NNNI31
I1
I0
tbS'/biology/organism/organism_type'
tRp463
g2
(g3
(S'S55'
I0
I1
tRp464
(I3
S'|'
NNNI55
I1
I0
tbS'/biology/organism_classification/organisms_of_this_type'
tRp465
sg2
(g3
(S'S42'
I0
I1
tRp466
(I3
S'|'
NNNI42
I1
I0
tbS'/base/petbreeds/dog_breed_group/dog_breeds'
tRp467
g2
(g3
(S'S31'
I0
I1
tRp468
(I3
S'|'
NNNI31
I1
I0
tbS'/base/petbreeds/dog_breed/group'
tRp469
sg2
(g3
(S'S37'
I0
I1
tRp470
(I3
S'|'
NNNI37
I1
I0
tbS'/biology/organism_classification/rank'
tRp471
g2
(g3
(S'S62'
I0
I1
tRp472
(I3
S'|'
NNNI62
I1
I0
tbS'/biology/organism_classification_rank/organism_classifications'
tRp473
sg2
(g3
(S'S39'
I0
I1
tRp474
(I3
S'|'
NNNI39
I1
I0
tbS'/geography/lake_type/lakes_of_this_type'
tRp475
g2
(g3
(S'S25'
I0
I1
tRp476
(I3
S'|'
NNNI25
I1
I0
tbS'/geography/lake/lake_type'
tRp477
sg307
g305
sg2
(g3
(S'S28'
I0
I1
tRp478
(I3
S'|'
NNNI28
I1
I0
tbS'/people/family_member/family'
tRp479
g2
(g3
(S'S22'
I0
I1
tRp480
(I3
S'|'
NNNI22
I1
I0
tbS'/people/family/members'
tRp481
sg2
(g3
(S'S90'
I0
I1
tRp482
(I3
S'|'
NNNI90
I1
I0
tbS'/user/tsegaran/random/taxonomy_subject/entry./user/tsegaran/random/taxonomy_entry/taxonomy'
tRp483
g2
(g3
(S'S89'
I0
I1
tRp484
(I3
S'|'
NNNI89
I1
I0
tbS'/user/tsegaran/random/subject_taxonomy/entry./user/tsegaran/random/taxonomy_entry/subject'
tRp485
sg2
(g3
(S'S61'
I0
I1
tRp486
(I3
S'|'
NNNI61
I1
I0
tbS'/tv/tv_program/regular_cast./tv/regular_tv_appearance/seasons'
tRp487
g2
(g3
(S'S66'
I0
I1
tRp488
(I3
S'|'
NNNI66
I1
I0
tbS'/tv/tv_series_season/regular_cast./tv/regular_tv_appearance/series'
tRp489
sg203
g201
sg2
(g3
(S'S59'
I0
I1
tRp490
(I3
S'|'
NNNI59
I1
I0
tbS'/music/group_member/membership./music/group_membership/role'
tRp491
g2
(g3
(S'S75'
I0
I1
tRp492
(I3
S'|'
NNNI75
I1
I0
tbS'/music/performance_role/regular_performances./music/group_membership/member'
tRp493
sg2
(g3
(S'S67'
I0
I1
tRp494
(I3
S'|'
NNNI67
I1
I0
tbS'/sports/sports_position/players./sports/sports_team_roster/position'
tRp495
g495
sg2
(g3
(S'S19'
I0
I1
tRp496
(I3
S'|'
NNNI19
I1
I0
tbS'/film/producer/film'
tRp497
g2
(g3
(S'S22'
I0
I1
tRp498
(I3
S'|'
NNNI22
I1
I0
tbS'/film/film/produced_by'
tRp499
sg2
(g3
(S'S25'
I0
I1
tRp500
(I3
S'|'
NNNI25
I1
I0
tbS'/aviation/airport/hub_for'
tRp501
g2
(g3
(S'S22'
I0
I1
tRp502
(I3
S'|'
NNNI22
I1
I0
tbS'/aviation/airline/hubs'
tRp503
sg2
(g3
(S'S48'
I0
I1
tRp504
(I3
S'|'
NNNI48
I1
I0
tbS'/transportation/bridge_type/bridges_of_this_type'
tRp505
g2
(g3
(S'S34'
I0
I1
tRp506
(I3
S'|'
NNNI34
I1
I0
tbS'/transportation/bridge/bridge_type'
tRp507
sg2
(g3
(S'S20'
I0
I1
tRp508
(I3
S'|'
NNNI20
I1
I0
tbS'/book/magazine/genre'
tRp509
g2
(g3
(S'S44'
I0
I1
tRp510
(I3
S'|'
NNNI44
I1
I0
tbS'/book/magazine_genre/magazines_in_this_genre'
tRp511
sg2
(g3
(S'S71'
I0
I1
tRp512
(I3
S'|'
NNNI71
I1
I0
tbS'/sports/sports_position/players./baseball/baseball_roster_position/team'
tRp513
g2
(g3
(S'S74'
I0
I1
tRp514
(I3
S'|'
NNNI74
I1
I0
tbS'/baseball/baseball_team/current_roster./sports/sports_team_roster/position'
tRp515
sg2
(g3
(S'S73'
I0
I1
tRp516
(I3
S'|'
NNNI73
I1
I0
tbS'/military/rank/used_by_services./military/military_service/military_force'
tRp517
g2
(g3
(S'S63'
I0
I1
tRp518
(I3
S'|'
NNNI63
I1
I0
tbS'/military/armed_force/personnel./military/military_service/rank'
tRp519
sg2
(g3
(S'S46'
I0
I1
tRp520
(I3
S'|'
NNNI46
I1
I0
tbS'/fictional_universe/fictional_character/gender'
tRp521
g2
(g3
(S'S62'
I0
I1
tRp522
(I3
S'|'
NNNI62
I1
I0
tbS'/fictional_universe/character_gender/characters_of_this_gender'
tRp523
sg2
(g3
(S'S91'
I0
I1
tRp524
(I3
S'|'
NNNI91
I1
I0
tbS'/award/hall_of_fame_inductee/hall_of_fame_inductions./award/hall_of_fame_induction/category'
tRp525
g2
(g3
(S'S87'
I0
I1
tRp526
(I3
S'|'
NNNI87
I1
I0
tbS'/award/hall_of_fame_induction_category/inductees./award/hall_of_fame_induction/inductee'
tRp527
sg2
(g3
(S'S30'
I0
I1
tRp528
(I3
S'|'
NNNI30
I1
I0
tbS'/baseball/baseball_team/league'
tRp529
g2
(g3
(S'S31'
I0
I1
tRp530
(I3
S'|'
NNNI31
I1
I0
tbS'/baseball/baseball_league/teams'
tRp531
sg2
(g3
(S'S144'
I0
I1
tRp532
(I3
S'|'
NNNI144
I1
I0
tbS'/base/x2010fifaworldcupsouthafrica/world_cup_participant/world_cup_team./base/x2010fifaworldcupsouthafrica/current_world_cup_squad/national_team'
tRp533
g2
(g3
(S'S141'
I0
I1
tRp534
(I3
S'|'
NNNI141
I1
I0
tbS'/base/x2010fifaworldcupsouthafrica/world_cup_squad/current_world_cup_squad./base/x2010fifaworldcupsouthafrica/current_world_cup_squad/players'
tRp535
sg2
(g3
(S'S69'
I0
I1
tRp536
(I3
S'|'
NNNI69
I1
I0
tbS'/military/military_conflict/casualties./military/casualties/combatant'
tRp537
g2
(g3
(S'S78'
I0
I1
tRp538
(I3
S'|'
NNNI78
I1
I0
tbS'/military/military_combatant/casualties./military/casualties/military_conflict'
tRp539
sg2
(g3
(S'S33'
I0
I1
tRp540
(I3
S'|'
NNNI33
I1
I0
tbS'/computer/software/software_genre'
tRp541
g2
(g3
(S'S42'
I0
I1
tRp542
(I3
S'|'
NNNI42
I1
I0
tbS'/computer/software_genre/software_in_genre'
tRp543
sg2
(g3
(S'S35'
I0
I1
tRp544
(I3
S'|'
NNNI35
I1
I0
tbS'/people/ethnicity/included_in_group'
tRp545
g2
(g3
(S'S33'
I0
I1
tRp546
(I3
S'|'
NNNI33
I1
I0
tbS'/people/ethnicity/includes_groups'
tRp547
sg519
g517
sg2
(g3
(S'S78'
I0
I1
tRp548
(I3
S'|'
NNNI78
I1
I0
tbS'/olympics/olympic_sport/athletes./olympics/olympic_athlete_affiliation/athlete'
tRp549
g2
(g3
(S'S77'
I0
I1
tRp550
(I3
S'|'
NNNI77
I1
I0
tbS'/olympics/olympic_athlete/country./olympics/olympic_athlete_affiliation/sport'
tRp551
sg2
(g3
(S'S70'
I0
I1
tRp552
(I3
S'|'
NNNI70
I1
I0
tbS'/basketball/basketball_team/roster./sports/sports_team_roster/position'
tRp553
g2
(g3
(S'S75'
I0
I1
tRp554
(I3
S'|'
NNNI75
I1
I0
tbS'/sports/sports_position/players./basketball/basketball_roster_position/team'
tRp555
sg2
(g3
(S'S62'
I0
I1
tRp556
(I3
S'|'
NNNI62
I1
I0
tbS'/film/film/starring./film/performance/special_performance_type'
tRp557
g2
(g3
(S'S80'
I0
I1
tRp558
(I3
S'|'
NNNI80
I1
I0
tbS'/film/special_film_performance_type/film_performance_type./film/performance/film'
tRp559
sg2
(g3
(S'S29'
I0
I1
tRp560
(I3
S'|'
NNNI29
I1
I0
tbS'/people/person/place_of_birth'
tRp561
g2
(g3
(S'S35'
I0
I1
tRp562
(I3
S'|'
NNNI35
I1
I0
tbS'/location/location/people_born_here'
tRp563
sg2
(g3
(S'S32'
I0
I1
tRp564
(I3
S'|'
NNNI32
I1
I0
tbS'/cvg/game_series/games_in_series'
tRp565
g2
(g3
(S'S35'
I0
I1
tRp566
(I3
S'|'
NNNI35
I1
I0
tbS'/cvg/computer_videogame/game_series'
tRp567
sg2
(g3
(S'S25'
I0
I1
tRp568
(I3
S'|'
NNNI25
I1
I0
tbS'/music/genre/parent_genre'
tRp569
g2
(g3
(S'S21'
I0
I1
tRp570
(I3
S'|'
NNNI21
I1
I0
tbS'/music/genre/subgenre'
tRp571
sg2
(g3
(S'S26'
I0
I1
tRp572
(I3
S'|'
NNNI26
I1
I0
tbS'/time/event/includes_event'
tRp573
g2
(g3
(S'S29'
I0
I1
tRp574
(I3
S'|'
NNNI29
I1
I0
tbS'/time/event/included_in_event'
tRp575
sg2
(g3
(S'S81'
I0
I1
tRp576
(I3
S'|'
NNNI81
I1
I0
tbS'/tv/tv_program_guest/appeared_on./tv/tv_guest_personal_appearance/appearance_type'
tRp577
g2
(g3
(S'S92'
I0
I1
tRp578
(I3
S'|'
NNNI92
I1
I0
tbS'/tv/non_character_role/tv_guest_personal_appearances./tv/tv_guest_personal_appearance/person'
tRp579
sg2
(g3
(S'S89'
I0
I1
tRp580
(I3
S'|'
NNNI89
I1
I0
tbS'/baseball/baseball_player/former_teams./baseball/baseball_historical_roster_position/team'
tRp581
g2
(g3
(S'S94'
I0
I1
tRp582
(I3
S'|'
NNNI94
I1
I0
tbS'/baseball/baseball_team/historical_roster./baseball/baseball_historical_roster_position/player'
tRp583
sg2
(g3
(S'S55'
I0
I1
tRp584
(I3
S'|'
NNNI55
I1
I0
tbS'/medicine/icd_9_cm_classification/parent_classification'
tRp585
g2
(g3
(S'S58'
I0
I1
tRp586
(I3
S'|'
NNNI58
I1
I0
tbS'/medicine/icd_9_cm_classification/includes_classifications'
tRp587
sg421
g419
sg2
(g3
(S'S74'
I0
I1
tRp588
(I3
S'|'
NNNI74
I1
I0
tbS'/base/popstra/company/product_endorser./base/popstra/paid_support/endorser'
tRp589
g2
(g3
(S'S71'
I0
I1
tRp590
(I3
S'|'
NNNI71
I1
I0
tbS'/base/popstra/celebrity/endorsements./base/popstra/paid_support/company'
tRp591
sg2
(g3
(S'S34'
I0
I1
tRp592
(I3
S'|'
NNNI34
I1
I0
tbS'/location/location/nearby_airports'
tRp593
g2
(g3
(S'S24'
I0
I1
tRp594
(I3
S'|'
NNNI24
I1
I0
tbS'/aviation/airport/serves'
tRp595
sg2
(g3
(S'S56'
I0
I1
tRp596
(I3
S'|'
NNNI56
I1
I0
tbS'/music/musical_group/member./music/group_membership/role'
tRp597
g2
(g3
(S'S74'
I0
I1
tRp598
(I3
S'|'
NNNI74
I1
I0
tbS'/music/performance_role/regular_performances./music/group_membership/group'
tRp599
sg2
(g3
(S'S63'
I0
I1
tRp600
(I3
S'|'
NNNI63
I1
I0
tbS'/government/government_office_or_title/governmental_body_if_any'
tRp601
g2
(g3
(S'S47'
I0
I1
tRp602
(I3
S'|'
NNNI47
I1
I0
tbS'/government/governmental_body/offices_positions'
tRp603
sg2
(g3
(S'S110'
I0
I1
tRp604
(I3
S'|'
NNNI110
I1
I0
tbS'/business/board_member/organization_board_memberships./organization/organization_board_membership/organization'
tRp605
g2
(g3
(S'S91'
I0
I1
tRp606
(I3
S'|'
NNNI91
I1
I0
tbS'/organization/organization/board_members./organization/organization_board_membership/member'
tRp607
sg2
(g3
(S'S34'
I0
I1
tRp608
(I3
S'|'
NNNI34
I1
I0
tbS'/music/instrument/instrumentalists'
tRp609
g2
(g3
(S'S38'
I0
I1
tRp610
(I3
S'|'
NNNI38
I1
I0
tbS'/music/group_member/instruments_played'
tRp611
sg2
(g3
(S'S38'
I0
I1
tRp612
(I3
S'|'
NNNI38
I1
I0
tbS'/astronomy/orbital_relationship/orbits'
tRp613
g2
(g3
(S'S42'
I0
I1
tRp614
(I3
S'|'
NNNI42
I1
I0
tbS'/astronomy/orbital_relationship/orbited_by'
tRp615
sg2
(g3
(S'S42'
I0
I1
tRp616
(I3
S'|'
NNNI42
I1
I0
tbS'/religion/religious_text/religious_text_of'
tRp617
g2
(g3
(S'S24'
I0
I1
tRp618
(I3
S'|'
NNNI24
I1
I0
tbS'/religion/religion/texts'
tRp619
sg2
(g3
(S'S67'
I0
I1
tRp620
(I3
S'|'
NNNI67
I1
I0
tbS'/people/appointed_role/appointment./people/appointment/appointed_by'
tRp621
g2
(g3
(S'S69'
I0
I1
tRp622
(I3
S'|'
NNNI69
I1
I0
tbS'/people/appointer/appointment_made./people/appointment/appointed_role'
tRp623
sg2
(g3
(S'S36'
I0
I1
tRp624
(I3
S'|'
NNNI36
I1
I0
tbS'/computer/operating_system/developer'
tRp625
g2
(g3
(S'S64'
I0
I1
tRp626
(I3
S'|'
NNNI64
I1
I0
tbS'/computer/operating_system_developer/operating_systems_developed'
tRp627
sg2
(g3
(S'S74'
I0
I1
tRp628
(I3
S'|'
NNNI74
I1
I0
tbS'/soccer/football_player/current_team./soccer/football_roster_position/team'
tRp629
g2
(g3
(S'S76'
I0
I1
tRp630
(I3
S'|'
NNNI76
I1
I0
tbS'/soccer/football_team/current_roster./soccer/football_roster_position/player'
tRp631
sg2
(g3
(S'S30'
I0
I1
tRp632
(I3
S'|'
NNNI30
I1
I0
tbS'/film/production_company/films'
tRp633
g2
(g3
(S'S31'
I0
I1
tRp634
(I3
S'|'
NNNI31
I1
I0
tbS'/film/film/production_companies'
tRp635
sg2
(g3
(S'S61'
I0
I1
tRp636
(I3
S'|'
NNNI61
I1
I0
tbS'/sports/sports_award_winner/awards./sports/sports_award/award'
tRp637
g2
(g3
(S'S67'
I0
I1
tRp638
(I3
S'|'
NNNI67
I1
I0
tbS'/sports/sports_award_type/winners./sports/sports_award/award_winner'
tRp639
sg303
g301
sg2
(g3
(S'S101'
I0
I1
tRp640
(I3
S'|'
NNNI101
I1
I0
tbS'/government/legislative_session/members./government/government_position_held/office_position_or_title'
tRp641
g2
(g3
(S'S111'
I0
I1
tRp642
(I3
S'|'
NNNI111
I1
I0
tbS'/government/government_office_or_title/office_holders./government/government_position_held/legislative_sessions'
tRp643
sg2
(g3
(S'S61'
I0
I1
tRp644
(I3
S'|'
NNNI61
I1
I0
tbS'/people/person/sibling_s./people/sibling_relationship/sibling'
tRp645
g645
sg2
(g3
(S'S36'
I0
I1
tRp646
(I3
S'|'
NNNI36
I1
I0
tbS'/influence/influence_node/influenced'
tRp647
g2
(g3
(S'S39'
I0
I1
tRp648
(I3
S'|'
NNNI39
I1
I0
tbS'/influence/influence_node/influenced_by'
tRp649
sg2
(g3
(S'S55'
I0
I1
tRp650
(I3
S'|'
NNNI55
I1
I0
tbS'/base/thoroughbredracing/thoroughbred_racehorse/country'
tRp651
g2
(g3
(S'S80'
I0
I1
tRp652
(I3
S'|'
NNNI80
I1
I0
tbS'/base/thoroughbredracing/thoroughbred_racehorse_origin/horses_from_this_location'
tRp653
sg2
(g3
(S'S81'
I0
I1
tRp654
(I3
S'|'
NNNI81
I1
I0
tbS'/film/film/personal_appearances./film/personal_film_appearance/type_of_appearance'
tRp655
g2
(g3
(S'S88'
I0
I1
tRp656
(I3
S'|'
NNNI88
I1
I0
tbS'/film/personal_film_appearance_type/film_appearances./film/personal_film_appearance/film'
tRp657
sg2
(g3
(S'S50'
I0
I1
tRp658
(I3
S'|'
NNNI50
I1
I0
tbS'/visual_art/art_period_movement/associated_artists'
tRp659
g2
(g3
(S'S57'
I0
I1
tRp660
(I3
S'|'
NNNI57
I1
I0
tbS'/visual_art/visual_artist/associated_periods_or_movements'
tRp661
sg2
(g3
(S'S63'
I0
I1
tRp662
(I3
S'|'
NNNI63
I1
I0
tbS'/film/film/dubbing_performances./film/dubbing_performance/actor'
tRp663
g2
(g3
(S'S63'
I0
I1
tRp664
(I3
S'|'
NNNI63
I1
I0
tbS'/film/actor/dubbing_performances./film/dubbing_performance/film'
tRp665
sg2
(g3
(S'S68'
I0
I1
tRp666
(I3
S'|'
NNNI68
I1
I0
tbS'/sports/sports_league/teams./sports/sports_league_participation/team'
tRp667
g2
(g3
(S'S69'
I0
I1
tRp668
(I3
S'|'
NNNI69
I1
I0
tbS'/sports/sports_team/league./sports/sports_league_participation/league'
tRp669
sg2
(g3
(S'S109'
I0
I1
tRp670
(I3
S'|'
NNNI109
I1
I0
tbS'/base/contractbridge/bridge_tournament/standing./base/contractbridge/bridge_tournament_standings/second_place'
tRp671
g2
(g3
(S'S114'
I0
I1
tRp672
(I3
S'|'
NNNI114
I1
I0
tbS'/base/contractbridge/bridge_player/second_place_finish./base/contractbridge/bridge_tournament_standings/tournament'
tRp673
sg2
(g3
(S'S115'
I0
I1
tRp674
(I3
S'|'
NNNI115
I1
I0
tbS'/base/contractbridge/bridge_player/second_place_finish./base/contractbridge/bridge_tournament_standings/first_place'
tRp675
g2
(g3
(S'S115'
I0
I1
tRp676
(I3
S'|'
NNNI115
I1
I0
tbS'/base/contractbridge/bridge_player/first_place_finish./base/contractbridge/bridge_tournament_standings/second_place'
tRp677
sg2
(g3
(S'S89'
I0
I1
tRp678
(I3
S'|'
NNNI89
I1
I0
tbS'/organization/organization/board_members./organization/organization_board_membership/role'
tRp679
g2
(g3
(S'S85'
I0
I1
tRp680
(I3
S'|'
NNNI85
I1
I0
tbS'/organization/role/governors./organization/organization_board_membership/organization'
tRp681
sg2
(g3
(S'S34'
I0
I1
tRp682
(I3
S'|'
NNNI34
I1
I0
tbS'/education/academic/research_areas'
tRp683
g2
(g3
(S'S49'
I0
I1
tRp684
(I3
S'|'
NNNI49
I1
I0
tbS'/education/field_of_study/academics_in_this_field'
tRp685
sg677
g675
sg2
(g3
(S'S31'
I0
I1
tRp686
(I3
S'|'
NNNI31
I1
I0
tbS'/time/recurring_event/instances'
tRp687
g2
(g3
(S'S39'
I0
I1
tRp688
(I3
S'|'
NNNI39
I1
I0
tbS'/time/event/instance_of_recurring_event'
tRp689
sg2
(g3
(S'S30'
I0
I1
tRp690
(I3
S'|'
NNNI30
I1
I0
tbS'/base/crime/crime_victim/crime'
tRp691
g2
(g3
(S'S26'
I0
I1
tRp692
(I3
S'|'
NNNI26
I1
I0
tbS'/base/crime/crime/victim_s'
tRp693
sg2
(g3
(S'S71'
I0
I1
tRp694
(I3
S'|'
NNNI71
I1
I0
tbS'/sports/sports_league_draft/picks./sports/sports_league_draft_pick/team'
tRp695
g2
(g3
(S'S83'
I0
I1
tRp696
(I3
S'|'
NNNI83
I1
I0
tbS'/sports/professional_sports_team/draft_picks./sports/sports_league_draft_pick/draft'
tRp697
sg2
(g3
(S'S102'
I0
I1
tRp698
(I3
S'|'
NNNI102
I1
I0
tbS'/government/political_appointer/appointees./government/government_position_held/jurisdiction_of_office'
tRp699
g2
(g3
(S'S107'
I0
I1
tRp700
(I3
S'|'
NNNI107
I1
I0
tbS'/government/governmental_jurisdiction/governing_officials./government/government_position_held/appointed_by'
tRp701
sg2
(g3
(S'S68'
I0
I1
tRp702
(I3
S'|'
NNNI68
I1
I0
tbS'/cvg/computer_videogame/characters./cvg/game_performance/voice_actor'
tRp703
g2
(g3
(S'S81'
I0
I1
tRp704
(I3
S'|'
NNNI81
I1
I0
tbS'/cvg/game_voice_actor/computer_game_voice_performances./cvg/game_performance/game'
tRp705
sg2
(g3
(S'S76'
I0
I1
tRp706
(I3
S'|'
NNNI76
I1
I0
tbS'/olympics/olympic_games/athletes./olympics/olympic_athlete_affiliation/sport'
tRp707
g2
(g3
(S'S79'
I0
I1
tRp708
(I3
S'|'
NNNI79
I1
I0
tbS'/olympics/olympic_sport/athletes./olympics/olympic_athlete_affiliation/olympics'
tRp709
sg179
g177
sg2
(g3
(S'S57'
I0
I1
tRp710
(I3
S'|'
NNNI57
I1
I0
tbS'/music/conductor/groups./music/conducting_tenure/ensemble'
tRp711
g2
(g3
(S'S71'
I0
I1
tRp712
(I3
S'|'
NNNI71
I1
I0
tbS'/music/conducted_ensemble/conductors./music/conducting_tenure/conductor'
tRp713
sg2
(g3
(S'S71'
I0
I1
tRp714
(I3
S'|'
NNNI71
I1
I0
tbS'/people/marriage_union_type/unions_of_this_type./people/marriage/spouse'
tRp715
g2
(g3
(S'S54'
I0
I1
tRp716
(I3
S'|'
NNNI54
I1
I0
tbS'/people/person/spouse_s./people/marriage/type_of_union'
tRp717
sg2
(g3
(S'S91'
I0
I1
tRp718
(I3
S'|'
NNNI91
I1
I0
tbS'/organization/organization/spun_off_from./organization/organization_spin_off/parent_company'
tRp719
g2
(g3
(S'S86'
I0
I1
tRp720
(I3
S'|'
NNNI86
I1
I0
tbS'/organization/organization/spin_offs./organization/organization_spin_off/child_company'
tRp721
sg2
(g3
(S'S47'
I0
I1
tRp722
(I3
S'|'
NNNI47
I1
I0
tbS'/government/government_office_or_title/category'
tRp723
g2
(g3
(S'S46'
I0
I1
tRp724
(I3
S'|'
NNNI46
I1
I0
tbS'/government/government_office_category/offices'
tRp725
sg2
(g3
(S'S74'
I0
I1
tRp726
(I3
S'|'
NNNI74
I1
I0
tbS'/biology/animal_breed/registered_with./biology/breed_registration/registry'
tRp727
g2
(g3
(S'S75'
I0
I1
tRp728
(I3
S'|'
NNNI75
I1
I0
tbS'/biology/breed_registry/recognized_breeds./biology/breed_registration/breed'
tRp729
sg2
(g3
(S'S34'
I0
I1
tRp730
(I3
S'|'
NNNI34
I1
I0
tbS'/cvg/cvg_publisher/games_published'
tRp731
g2
(g3
(S'S33'
I0
I1
tRp732
(I3
S'|'
NNNI33
I1
I0
tbS'/cvg/computer_videogame/publisher'
tRp733
sg2
(g3
(S'S88'
I0
I1
tRp734
(I3
S'|'
NNNI88
I1
I0
tbS'/government/legislative_session/members./government/government_position_held/basic_title'
tRp735
g2
(g3
(S'S110'
I0
I1
tRp736
(I3
S'|'
NNNI110
I1
I0
tbS'/government/government_office_category/officeholders./government/government_position_held/legislative_sessions'
tRp737
sg2
(g3
(S'S45'
I0
I1
tRp738
(I3
S'|'
NNNI45
I1
I0
tbS'/base/wrestling/solo_wrestler_or_team/members'
tRp739
g2
(g3
(S'S52'
I0
I1
tRp740
(I3
S'|'
NNNI52
I1
I0
tbS'/base/wrestling/professional_wrestler/member_of_team'
tRp741
sg2
(g3
(S'S103'
I0
I1
tRp742
(I3
S'|'
NNNI103
I1
I0
tbS'/government/government_office_or_title/office_holders./government/government_position_held/appointed_by'
tRp743
g2
(g3
(S'S104'
I0
I1
tRp744
(I3
S'|'
NNNI104
I1
I0
tbS'/government/political_appointer/appointees./government/government_position_held/office_position_or_title'
tRp745
sg2
(g3
(S'S104'
I0
I1
tRp746
(I3
S'|'
NNNI104
I1
I0
tbS'/government/political_district/representatives./government/government_position_held/legislative_sessions'
tRp747
g2
(g3
(S'S97'
I0
I1
tRp748
(I3
S'|'
NNNI97
I1
I0
tbS'/government/legislative_session/members./government/government_position_held/district_represented'
tRp749
sg2
(g3
(S'S60'
I0
I1
tRp750
(I3
S'|'
NNNI60
I1
I0
tbS'/tv/tv_actor/starring_roles./tv/regular_tv_appearance/series'
tRp751
g2
(g3
(S'S59'
I0
I1
tRp752
(I3
S'|'
NNNI59
I1
I0
tbS'/tv/tv_program/regular_cast./tv/regular_tv_appearance/actor'
tRp753
sg2
(g3
(S'S95'
I0
I1
tRp754
(I3
S'|'
NNNI95
I1
I0
tbS'/education/educational_institution/students_graduates./education/education/major_field_of_study'
tRp755
g2
(g3
(S'S76'
I0
I1
tRp756
(I3
S'|'
NNNI76
I1
I0
tbS'/education/field_of_study/students_majoring./education/education/institution'
tRp757
sg2
(g3
(S'S25'
I0
I1
tRp758
(I3
S'|'
NNNI25
I1
I0
tbS'/location/location/events'
tRp759
g2
(g3
(S'S21'
I0
I1
tRp760
(I3
S'|'
NNNI21
I1
I0
tbS'/time/event/locations'
tRp761
sg2
(g3
(S'S31'
I0
I1
tRp762
(I3
S'|'
NNNI31
I1
I0
tbS'/visual_art/artwork/art_subject'
tRp763
g2
(g3
(S'S46'
I0
I1
tRp764
(I3
S'|'
NNNI46
I1
I0
tbS'/visual_art/art_subject/artwork_on_the_subject'
tRp765
sg2
(g3
(S'S69'
I0
I1
tRp766
(I3
S'|'
NNNI69
I1
I0
tbS'/sports/sports_position/players./soccer/football_roster_position/team'
tRp767
g2
(g3
(S'S72'
I0
I1
tRp768
(I3
S'|'
NNNI72
I1
I0
tbS'/soccer/football_team/current_roster./sports/sports_team_roster/position'
tRp769
sg2
(g3
(S'S82'
I0
I1
tRp770
(I3
S'|'
NNNI82
I1
I0
tbS'/film/film_character/portrayed_in_films./film/performance/special_performance_type'
tRp771
g2
(g3
(S'S85'
I0
I1
tRp772
(I3
S'|'
NNNI85
I1
I0
tbS'/film/special_film_performance_type/film_performance_type./film/performance/character'
tRp773
sg2
(g3
(S'S87'
I0
I1
tRp774
(I3
S'|'
NNNI87
I1
I0
tbS'/base/patronage/patron/related_client./base/patronage/patron_client_relationship/client'
tRp775
g2
(g3
(S'S87'
I0
I1
tRp776
(I3
S'|'
NNNI87
I1
I0
tbS'/base/patronage/client/related_patron./base/patronage/patron_client_relationship/patron'
tRp777
sg2
(g3
(S'S21'
I0
I1
tRp778
(I3
S'|'
NNNI21
I1
I0
tbS'/book/newspaper/owner'
tRp779
g2
(g3
(S'S38'
I0
I1
tRp780
(I3
S'|'
NNNI38
I1
I0
tbS'/book/newspaper_owner/newspapers_owned'
tRp781
sg2
(g3
(S'S76'
I0
I1
tRp782
(I3
S'|'
NNNI76
I1
I0
tbS'/tv/special_tv_performance_type/episode_performances./tv/tv_guest_role/actor'
tRp783
g2
(g3
(S'S67'
I0
I1
tRp784
(I3
S'|'
NNNI67
I1
I0
tbS'/tv/tv_actor/guest_roles./tv/tv_guest_role/special_performance_type'
tRp785
sg2
(g3
(S'S69'
I0
I1
tRp786
(I3
S'|'
NNNI69
I1
I0
tbS'/base/americancomedy/celebrity_impressionist/celebrities_impersonated'
tRp787
g2
(g3
(S'S59'
I0
I1
tRp788
(I3
S'|'
NNNI59
I1
I0
tbS'/base/americancomedy/impersonated_celebrity/impersonated_by'
tRp789
sg235
g233
sg2
(g3
(S'S38'
I0
I1
tRp790
(I3
S'|'
NNNI38
I1
I0
tbS'/aviation/aircraft_model/aircraft_type'
tRp791
g2
(g3
(S'S45'
I0
I1
tRp792
(I3
S'|'
NNNI45
I1
I0
tbS'/aviation/aircraft_type/aircraft_of_this_type'
tRp793
sg2
(g3
(S'S99'
I0
I1
tRp794
(I3
S'|'
NNNI99
I1
I0
tbS'/organization/organization/involved_in_merger./organization/organization_merger/became_organization'
tRp795
g2
(g3
(S'S100'
I0
I1
tRp796
(I3
S'|'
NNNI100
I1
I0
tbS'/organization/organization/product_of_merger./organization/organization_merger/organizations_merging'
tRp797
sg251
g249
sg2
(g3
(S'S36'
I0
I1
tRp798
(I3
S'|'
NNNI36
I1
I0
tbS'/baseball/baseball_player/position_s'
tRp799
g2
(g3
(S'S35'
I0
I1
tRp800
(I3
S'|'
NNNI35
I1
I0
tbS'/baseball/baseball_position/players'
tRp801
sg2
(g3
(S'S34'
I0
I1
tRp802
(I3
S'|'
NNNI34
I1
I0
tbS'/broadcast/distributor/distributes'
tRp803
g2
(g3
(S'S32'
I0
I1
tRp804
(I3
S'|'
NNNI32
I1
I0
tbS'/broadcast/broadcast/distributor'
tRp805
sg2
(g3
(S'S80'
I0
I1
tRp806
(I3
S'|'
NNNI80
I1
I0
tbS'/base/popstra/restaurant/restaurant_choice./base/popstra/restaurant_choice/diner'
tRp807
g2
(g3
(S'S74'
I0
I1
tRp808
(I3
S'|'
NNNI74
I1
I0
tbS'/base/popstra/celebrity/eats_at./base/popstra/restaurant_choice/restaurant'
tRp809
sg515
g513
sg2
(g3
(S'S47'
I0
I1
tRp810
(I3
S'|'
NNNI47
I1
I0
tbS'/people/person/spouse_s./people/marriage/spouse'
tRp811
g811
sg2
(g3
(S'S71'
I0
I1
tRp812
(I3
S'|'
NNNI71
I1
I0
tbS'/sports/sports_position/players./ice_hockey/hockey_roster_position/team'
tRp813
g2
(g3
(S'S74'
I0
I1
tRp814
(I3
S'|'
NNNI74
I1
I0
tbS'/ice_hockey/hockey_team/current_roster./sports/sports_team_roster/position'
tRp815
sg2
(g3
(S'S40'
I0
I1
tRp816
(I3
S'|'
NNNI40
I1
I0
tbS'/location/country/second_level_divisions'
tRp817
g2
(g3
(S'S58'
I0
I1
tRp818
(I3
S'|'
NNNI58
I1
I0
tbS'/location/administrative_division/second_level_division_of'
tRp819
sg2
(g3
(S'S88'
I0
I1
tRp820
(I3
S'|'
NNNI88
I1
I0
tbS'/ice_hockey/hockey_player/former_team_s./ice_hockey/hockey_previous_roster_position/team'
tRp821
g2
(g3
(S'S92'
I0
I1
tRp822
(I3
S'|'
NNNI92
I1
I0
tbS'/ice_hockey/hockey_team/historical_roster./ice_hockey/hockey_previous_roster_position/player'
tRp823
sg2
(g3
(S'S49'
I0
I1
tRp824
(I3
S'|'
NNNI49
I1
I0
tbS'/fictional_universe/fictional_character/ethnicity'
tRp825
g2
(g3
(S'S69'
I0
I1
tRp826
(I3
S'|'
NNNI69
I1
I0
tbS'/fictional_universe/ethnicity_in_fiction/characters_of_this_ethnicity'
tRp827
sg2
(g3
(S'S28'
I0
I1
tRp828
(I3
S'|'
NNNI28
I1
I0
tbS'/sports/sports_team/location'
tRp829
g2
(g3
(S'S34'
I0
I1
tRp830
(I3
S'|'
NNNI34
I1
I0
tbS'/sports/sports_team_location/teams'
tRp831
sg91
g89
sg2
(g3
(S'S76'
I0
I1
tRp832
(I3
S'|'
NNNI76
I1
I0
tbS'/film/film/distributors./film/film_film_distributor_relationship/distributor'
tRp833
g2
(g3
(S'S86'
I0
I1
tRp834
(I3
S'|'
NNNI86
I1
I0
tbS'/film/film_distributor/films_distributed./film/film_film_distributor_relationship/film'
tRp835
sg753
g751
sg2
(g3
(S'S40'
I0
I1
tRp836
(I3
S'|'
NNNI40
I1
I0
tbS'/government/form_of_government/countries'
tRp837
g2
(g3
(S'S36'
I0
I1
tRp838
(I3
S'|'
NNNI36
I1
I0
tbS'/location/country/form_of_government'
tRp839
sg2
(g3
(S'S96'
I0
I1
tRp840
(I3
S'|'
NNNI96
I1
I0
tbS'/american_football/football_player/current_team./american_football/football_roster_position/team'
tRp841
g2
(g3
(S'S98'
I0
I1
tRp842
(I3
S'|'
NNNI98
I1
I0
tbS'/american_football/football_team/current_roster./american_football/football_roster_position/player'
tRp843
sg2
(g3
(S'S58'
I0
I1
tRp844
(I3
S'|'
NNNI58
I1
I0
tbS'/fictional_universe/character_rank/characters_of_this_rank'
tRp845
g2
(g3
(S'S44'
I0
I1
tRp846
(I3
S'|'
NNNI44
I1
I0
tbS'/fictional_universe/fictional_character/rank'
tRp847
sg2
(g3
(S'S36'
I0
I1
tRp848
(I3
S'|'
NNNI36
I1
I0
tbS'/visual_art/visual_art_form/artworks'
tRp849
g2
(g3
(S'S28'
I0
I1
tRp850
(I3
S'|'
NNNI28
I1
I0
tbS'/visual_art/artwork/art_form'
tRp851
sg417
g415
sg2
(g3
(S'S30'
I0
I1
tRp852
(I3
S'|'
NNNI30
I1
I0
tbS'/medicine/drug/active_moieties'
tRp853
g2
(g3
(S'S47'
I0
I1
tRp854
(I3
S'|'
NNNI47
I1
I0
tbS'/medicine/drug_ingredient/active_moiety_of_drug'
tRp855
sg2
(g3
(S'S16'
I0
I1
tRp856
(I3
S'|'
NNNI16
I1
I0
tbS'/film/film/music'
tRp857
g2
(g3
(S'S28'
I0
I1
tRp858
(I3
S'|'
NNNI28
I1
I0
tbS'/film/music_contributor/film'
tRp859
sg2
(g3
(S'S40'
I0
I1
tRp860
(I3
S'|'
NNNI40
I1
I0
tbS'/martial_arts/martial_artist/martial_art'
tRp861
g2
(g3
(S'S49'
I0
I1
tRp862
(I3
S'|'
NNNI49
I1
I0
tbS'/martial_arts/martial_art/well_known_practitioner'
tRp863
sg2
(g3
(S'S44'
I0
I1
tRp864
(I3
S'|'
NNNI44
I1
I0
tbS'/base/fashionmodels/fashion_model/hair_color'
tRp865
g2
(g3
(S'S66'
I0
I1
tRp866
(I3
S'|'
NNNI66
I1
I0
tbS'/base/fashionmodels/hair_color/fashion_models_with_this_hair_color'
tRp867
sg383
g381
sg661
g659
sg2
(g3
(S'S41'
I0
I1
tRp868
(I3
S'|'
NNNI41
I1
I0
tbS'/architecture/building_function/buildings'
tRp869
g2
(g3
(S'S40'
I0
I1
tRp870
(I3
S'|'
NNNI40
I1
I0
tbS'/architecture/building/building_function'
tRp871
sg2
(g3
(S'S79'
I0
I1
tRp872
(I3
S'|'
NNNI79
I1
I0
tbS'/olympics/olympic_athlete/country./olympics/olympic_athlete_affiliation/country'
tRp873
g2
(g3
(S'S94'
I0
I1
tRp874
(I3
S'|'
NNNI94
I1
I0
tbS'/olympics/olympic_participating_country/athletes./olympics/olympic_athlete_affiliation/athlete'
tRp875
sg139
g137
sg2
(g3
(S'S64'
I0
I1
tRp876
(I3
S'|'
NNNI64
I1
I0
tbS'/user/robert/us_congress/us_representative/committee_memberships'
tRp877
g2
(g3
(S'S56'
I0
I1
tRp878
(I3
S'|'
NNNI56
I1
I0
tbS'/user/robert/us_congress/house_committee/current_members'
tRp879
sg2
(g3
(S'S103'
I0
I1
tRp880
(I3
S'|'
NNNI103
I1
I0
tbS'/government/politician/government_positions_held./government/government_position_held/governmental_body'
tRp881
g2
(g3
(S'S88'
I0
I1
tRp882
(I3
S'|'
NNNI88
I1
I0
tbS'/government/governmental_body/members./government/government_position_held/office_holder'
tRp883
sg2
(g3
(S'S84'
I0
I1
tRp884
(I3
S'|'
NNNI84
I1
I0
tbS'/military/military_conflict/commanders./military/military_command/military_combatant'
tRp885
g2
(g3
(S'S93'
I0
I1
tRp886
(I3
S'|'
NNNI93
I1
I0
tbS'/military/military_combatant/military_commanders./military/military_command/military_conflict'
tRp887
sg2
(g3
(S'S79'
I0
I1
tRp888
(I3
S'|'
NNNI79
I1
I0
tbS'/basketball/basketball_team/historical_roster./sports/sports_team_roster/player'
tRp889
g2
(g3
(S'S80'
I0
I1
tRp890
(I3
S'|'
NNNI80
I1
I0
tbS'/sports/pro_athlete/teams./basketball/basketball_historical_roster_position/team'
tRp891
sg2
(g3
(S'S36'
I0
I1
tRp892
(I3
S'|'
NNNI36
I1
I0
tbS'/astronomy/celestial_object/category'
tRp893
g2
(g3
(S'S44'
I0
I1
tRp894
(I3
S'|'
NNNI44
I1
I0
tbS'/astronomy/celestial_object_category/objects'
tRp895
sg2
(g3
(S'S99'
I0
I1
tRp896
(I3
S'|'
NNNI99
I1
I0
tbS'/government/legislative_session/members./government/government_position_held/jurisdiction_of_office'
tRp897
g2
(g3
(S'S115'
I0
I1
tRp898
(I3
S'|'
NNNI115
I1
I0
tbS'/government/governmental_jurisdiction/governing_officials./government/government_position_held/legislative_sessions'
tRp899
sg2
(g3
(S'S106'
I0
I1
tRp900
(I3
S'|'
NNNI106
I1
I0
tbS'/government/political_district/representatives./government/government_position_held/jurisdiction_of_office'
tRp901
g2
(g3
(S'S115'
I0
I1
tRp902
(I3
S'|'
NNNI115
I1
I0
tbS'/government/governmental_jurisdiction/governing_officials./government/government_position_held/district_represented'
tRp903
sg2
(g3
(S'S82'
I0
I1
tRp904
(I3
S'|'
NNNI82
I1
I0
tbS'/basketball/basketball_player/team./basketball/basketball_roster_position/position'
tRp905
g2
(g3
(S'S100'
I0
I1
tRp906
(I3
S'|'
NNNI100
I1
I0
tbS'/basketball/basketball_position/player_roster_position./basketball/basketball_roster_position/player'
tRp907
sg2
(g3
(S'S51'
I0
I1
tRp908
(I3
S'|'
NNNI51
I1
I0
tbS'/user/coco/science/concepts_theories/parent_concept'
tRp909
g2
(g3
(S'S50'
I0
I1
tRp910
(I3
S'|'
NNNI50
I1
I0
tbS'/user/coco/science/concepts_theories/child_concept'
tRp911
sg2
(g3
(S'S106'
I0
I1
tRp912
(I3
S'|'
NNNI106
I1
I0
tbS'/sports/tournament_event_competitor/events_competed_in./sports/competitor_competition_relationship/country'
tRp913
g2
(g3
(S'S99'
I0
I1
tRp914
(I3
S'|'
NNNI99
I1
I0
tbS'/sports/sport_country/athletic_performances./sports/competitor_competition_relationship/competitors'
tRp915
sg2
(g3
(S'S26'
I0
I1
tRp916
(I3
S'|'
NNNI26
I1
I0
tbS'/film/cinematographer/film'
tRp917
g2
(g3
(S'S25'
I0
I1
tRp918
(I3
S'|'
NNNI25
I1
I0
tbS'/film/film/cinematography'
tRp919
sg2
(g3
(S'S74'
I0
I1
tRp920
(I3
S'|'
NNNI74
I1
I0
tbS'/base/famouspets/pet_owner/pets_owned./base/famouspets/pet_ownership/owner'
tRp921
g921
sg2
(g3
(S'S67'
I0
I1
tRp922
(I3
S'|'
NNNI67
I1
I0
tbS'/people/person/employment_history./business/employment_tenure/title'
tRp923
g2
(g3
(S'S77'
I0
I1
tRp924
(I3
S'|'
NNNI77
I1
I0
tbS'/business/job_title/people_with_this_title./business/employment_tenure/person'
tRp925
sg2
(g3
(S'S73'
I0
I1
tRp926
(I3
S'|'
NNNI73
I1
I0
tbS'/tv/tv_program_guest/appeared_on./tv/tv_guest_personal_appearance/episode'
tRp927
g2
(g3
(S'S88'
I0
I1
tRp928
(I3
S'|'
NNNI88
I1
I0
tbS'/tv/tv_series_episode/guest_personal_appearances./tv/tv_guest_personal_appearance/person'
tRp929
sg2
(g3
(S'S65'
I0
I1
tRp930
(I3
S'|'
NNNI65
I1
I0
tbS'/base/popstra/celebrity/breakup./base/popstra/breakup/participant'
tRp931
g931
sg469
g467
sg443
g441
sg2
(g3
(S'S75'
I0
I1
tRp932
(I3
S'|'
NNNI75
I1
I0
tbS'/base/popstra/celebrity/vacations_in./base/popstra/vacation_choice/location'
tRp933
g2
(g3
(S'S75'
I0
I1
tRp934
(I3
S'|'
NNNI75
I1
I0
tbS'/base/popstra/location/vacationers./base/popstra/vacation_choice/vacationer'
tRp935
sg875
g873
sg2
(g3
(S'S60'
I0
I1
tRp936
(I3
S'|'
NNNI60
I1
I0
tbS'/sports/sport/pro_athletes./sports/pro_sports_played/athlete'
tRp937
g2
(g3
(S'S80'
I0
I1
tRp938
(I3
S'|'
NNNI80
I1
I0
tbS'/sports/pro_athlete/sports_played_professionally./sports/pro_sports_played/sport'
tRp939
sg2
(g3
(S'S80'
I0
I1
tRp940
(I3
S'|'
NNNI80
I1
I0
tbS'/sports/sports_position/players./american_football/football_roster_position/team'
tRp941
g2
(g3
(S'S83'
I0
I1
tRp942
(I3
S'|'
NNNI83
I1
I0
tbS'/american_football/football_team/current_roster./sports/sports_team_roster/position'
tRp943
sg2
(g3
(S'S22'
I0
I1
tRp944
(I3
S'|'
NNNI22
I1
I0
tbS'/dining/cuisine/dishes'
tRp945
g2
(g3
(S'S18'
I0
I1
tRp946
(I3
S'|'
NNNI18
I1
I0
tbS'/food/dish/cuisine'
tRp947
sg2
(g3
(S'S78'
I0
I1
tRp948
(I3
S'|'
NNNI78
I1
I0
tbS'/olympics/olympic_sport/athletes./olympics/olympic_athlete_affiliation/country'
tRp949
g2
(g3
(S'S92'
I0
I1
tRp950
(I3
S'|'
NNNI92
I1
I0
tbS'/olympics/olympic_participating_country/athletes./olympics/olympic_athlete_affiliation/sport'
tRp951
sg2
(g3
(S'S125'
I0
I1
tRp952
(I3
S'|'
NNNI125
I1
I0
tbS'/location/symbol_of_administrative_division/official_symbol_of./location/location_symbol_relationship/administrative_division'
tRp953
g2
(g3
(S'S100'
I0
I1
tRp954
(I3
S'|'
NNNI100
I1
I0
tbS'/government/governmental_jurisdiction/official_symbols./location/location_symbol_relationship/symbol'
tRp955
sg2
(g3
(S'S75'
I0
I1
tRp956
(I3
S'|'
NNNI75
I1
I0
tbS'/user/robert/us_congress/us_representative/congressional_caucus_memberships'
tRp957
g2
(g3
(S'S67'
I0
I1
tRp958
(I3
S'|'
NNNI67
I1
I0
tbS'/user/robert/us_congress/congressional_caucus/current_house_members'
tRp959
sg2
(g3
(S'S66'
I0
I1
tRp960
(I3
S'|'
NNNI66
I1
I0
tbS'/influence/influence_node/peers./influence/peer_relationship/peers'
tRp961
g961
sg511
g509
sg2
(g3
(S'S62'
I0
I1
tRp962
(I3
S'|'
NNNI62
I1
I0
tbS'/film/film_character/portrayed_in_films./film/performance/film'
tRp963
g2
(g3
(S'S47'
I0
I1
tRp964
(I3
S'|'
NNNI47
I1
I0
tbS'/film/film/starring./film/performance/character'
tRp965
sg2
(g3
(S'S90'
I0
I1
tRp966
(I3
S'|'
NNNI90
I1
I0
tbS'/government/legislative_session/members./government/government_position_held/office_holder'
tRp967
g2
(g3
(S'S106'
I0
I1
tRp968
(I3
S'|'
NNNI106
I1
I0
tbS'/government/politician/government_positions_held./government/government_position_held/legislative_sessions'
tRp969
sg47
g45
sg2
(g3
(S'S62'
I0
I1
tRp970
(I3
S'|'
NNNI62
I1
I0
tbS'/business/employer/employees./business/employment_tenure/title'
tRp971
g2
(g3
(S'S78'
I0
I1
tRp972
(I3
S'|'
NNNI78
I1
I0
tbS'/business/job_title/people_with_this_title./business/employment_tenure/company'
tRp973
sg2
(g3
(S'S74'
I0
I1
tRp974
(I3
S'|'
NNNI74
I1
I0
tbS'/military/armed_force/personnel./military/military_service/military_person'
tRp975
g2
(g3
(S'S75'
I0
I1
tRp976
(I3
S'|'
NNNI75
I1
I0
tbS'/military/military_person/service./military/military_service/military_force'
tRp977
sg2
(g3
(S'S47'
I0
I1
tRp978
(I3
S'|'
NNNI47
I1
I0
tbS'/education/school_category/schools_of_this_kind'
tRp979
g2
(g3
(S'S46'
I0
I1
tRp980
(I3
S'|'
NNNI46
I1
I0
tbS'/education/educational_institution/school_type'
tRp981
sg11
g9
sg2
(g3
(S'S104'
I0
I1
tRp982
(I3
S'|'
NNNI104
I1
I0
tbS'/base/localfood/food_producing_region/seasonal_availability./base/localfood/produce_availability/produce'
tRp983
g2
(g3
(S'S82'
I0
I1
tRp984
(I3
S'|'
NNNI82
I1
I0
tbS'/base/localfood/produce/availability./base/localfood/produce_availability/location'
tRp985
sg2
(g3
(S'S83'
I0
I1
tRp986
(I3
S'|'
NNNI83
I1
I0
tbS'/sports/sports_team/roster./basketball/basketball_historical_roster_position/player'
tRp987
g2
(g3
(S'S74'
I0
I1
tRp988
(I3
S'|'
NNNI74
I1
I0
tbS'/basketball/basketball_player/former_teams./sports/sports_team_roster/team'
tRp989
sg2
(g3
(S'S84'
I0
I1
tRp990
(I3
S'|'
NNNI84
I1
I0
tbS'/military/military_conflict/combatants./military/military_combatant_group/combatants'
tRp991
g2
(g3
(S'S91'
I0
I1
tRp992
(I3
S'|'
NNNI91
I1
I0
tbS'/military/military_combatant/military_conflicts./military/military_combatant_group/conflict'
tRp993
sg2
(g3
(S'S76'
I0
I1
tRp994
(I3
S'|'
NNNI76
I1
I0
tbS'/tv/tv_producer_type/tv_producers_of_this_type./tv/tv_producer_term/producer'
tRp995
g2
(g3
(S'S68'
I0
I1
tRp996
(I3
S'|'
NNNI68
I1
I0
tbS'/tv/tv_producer/programs_produced./tv/tv_producer_term/producer_type'
tRp997
sg195
g193
sg635
g633
sg2
(g3
(S'S102'
I0
I1
tRp998
(I3
S'|'
NNNI102
I1
I0
tbS'/base/saturdaynightlive/snl_cast_member/seasons./base/saturdaynightlive/snl_season_tenure/cast_members'
tRp999
g999
sg639
g637
sg59
g57
sg2
(g3
(S'S45'
I0
I1
tRp1000
(I3
S'|'
NNNI45
I1
I0
tbS'/base/events/festival_series/type_of_festival'
tRp1001
g2
(g3
(S'S62'
I0
I1
tRp1002
(I3
S'|'
NNNI62
I1
I0
tbS'/base/events/type_of_festival/recurring_festivals_of_this_type'
tRp1003
sg2
(g3
(S'S33'
I0
I1
tRp1004
(I3
S'|'
NNNI33
I1
I0
tbS'/sports/sports_team/arena_stadium'
tRp1005
g2
(g3
(S'S29'
I0
I1
tRp1006
(I3
S'|'
NNNI29
I1
I0
tbS'/sports/sports_facility/teams'
tRp1007
sg2
(g3
(S'S113'
I0
I1
tRp1008
(I3
S'|'
NNNI113
I1
I0
tbS'/base/contractbridge/bridge_player/first_place_finish./base/contractbridge/bridge_tournament_standings/tournament'
tRp1009
g2
(g3
(S'S108'
I0
I1
tRp1010
(I3
S'|'
NNNI108
I1
I0
tbS'/base/contractbridge/bridge_tournament/standing./base/contractbridge/bridge_tournament_standings/first_place'
tRp1011
sg2
(g3
(S'S98'
I0
I1
tRp1012
(I3
S'|'
NNNI98
I1
I0
tbS'/government/politician/government_positions_held./government/government_position_held/appointed_by'
tRp1013
g2
(g3
(S'S93'
I0
I1
tRp1014
(I3
S'|'
NNNI93
I1
I0
tbS'/government/political_appointer/appointees./government/government_position_held/office_holder'
tRp1015
sg2
(g3
(S'S52'
I0
I1
tRp1016
(I3
S'|'
NNNI52
I1
I0
tbS'/fictional_universe/fictional_setting/works_set_here'
tRp1017
g2
(g3
(S'S43'
I0
I1
tRp1018
(I3
S'|'
NNNI43
I1
I0
tbS'/fictional_universe/work_of_fiction/setting'
tRp1019
sg2
(g3
(S'S106'
I0
I1
tRp1020
(I3
S'|'
NNNI106
I1
I0
tbS'/government/politician/government_positions_held./government/government_position_held/district_represented'
tRp1021
g2
(g3
(S'S97'
I0
I1
tRp1022
(I3
S'|'
NNNI97
I1
I0
tbS'/government/political_district/representatives./government/government_position_held/office_holder'
tRp1023
sg2
(g3
(S'S87'
I0
I1
tRp1024
(I3
S'|'
NNNI87
I1
I0
tbS'/government/governmental_body/members./government/government_position_held/appointed_by'
tRp1025
g2
(g3
(S'S97'
I0
I1
tRp1026
(I3
S'|'
NNNI97
I1
I0
tbS'/government/political_appointer/appointees./government/government_position_held/governmental_body'
tRp1027
sg2
(g3
(S'S56'
I0
I1
tRp1028
(I3
S'|'
NNNI56
I1
I0
tbS'/user/tfmorris/default_domain/signatory/documents_signed'
tRp1029
g2
(g3
(S'S50'
I0
I1
tRp1030
(I3
S'|'
NNNI50
I1
I0
tbS'/user/tfmorris/default_domain/document/signatories'
tRp1031
sg2
(g3
(S'S50'
I0
I1
tRp1032
(I3
S'|'
NNNI50
I1
I0
tbS'/travel/tourist_attraction/near_travel_destination'
tRp1033
g2
(g3
(S'S46'
I0
I1
tRp1034
(I3
S'|'
NNNI46
I1
I0
tbS'/travel/travel_destination/tourist_attractions'
tRp1035
sg839
g837
sg559
g557
sg859
g857
sg371
g369
sg801
g799
sg2
(g3
(S'S47'
I0
I1
tRp1036
(I3
S'|'
NNNI47
I1
I0
tbS'/education/educational_institution/sports_teams'
tRp1037
g2
(g3
(S'S33'
I0
I1
tRp1038
(I3
S'|'
NNNI33
I1
I0
tbS'/sports/school_sports_team/school'
tRp1039
sg947
g945
sg2
(g3
(S'S43'
I0
I1
tRp1040
(I3
S'|'
NNNI43
I1
I0
tbS'/architecture/architect/structures_designed'
tRp1041
g2
(g3
(S'S33'
I0
I1
tRp1042
(I3
S'|'
NNNI33
I1
I0
tbS'/architecture/structure/architect'
tRp1043
sg2
(g3
(S'S113'
I0
I1
tRp1044
(I3
S'|'
NNNI113
I1
I0
tbS'/protected_sites/site_listing_category/listed_sites./protected_sites/natural_or_cultural_site_listing/listed_site'
tRp1045
g2
(g3
(S'S139'
I0
I1
tRp1046
(I3
S'|'
NNNI139
I1
I0
tbS'/protected_sites/listed_site/designation_as_natural_or_cultural_site./protected_sites/natural_or_cultural_site_listing/category_or_criteria'
tRp1047
sg2
(g3
(S'S60'
I0
I1
tRp1048
(I3
S'|'
NNNI60
I1
I0
tbS'/sports/sports_team/roster./sports/sports_team_roster/player'
tRp1049
g2
(g3
(S'S57'
I0
I1
tRp1050
(I3
S'|'
NNNI57
I1
I0
tbS'/sports/pro_athlete/teams./sports/sports_team_roster/team'
tRp1051
sg2
(g3
(S'S68'
I0
I1
tRp1052
(I3
S'|'
NNNI68
I1
I0
tbS'/business/brand/owner_s./business/company_brand_relationship/company'
tRp1053
g2
(g3
(S'S76'
I0
I1
tRp1054
(I3
S'|'
NNNI76
I1
I0
tbS'/business/consumer_company/brands./business/company_brand_relationship/brand'
tRp1055
sg2
(g3
(S'S58'
I0
I1
tRp1056
(I3
S'|'
NNNI58
I1
I0
tbS'/award/award_winner/awards_won./award/award_honor/ceremony'
tRp1057
g2
(g3
(S'S70'
I0
I1
tRp1058
(I3
S'|'
NNNI70
I1
I0
tbS'/award/award_ceremony/awards_presented./award/award_honor/award_winner'
tRp1059
sg2
(g3
(S'S30'
I0
I1
tRp1060
(I3
S'|'
NNNI30
I1
I0
tbS'/aviation/airline/focus_cities'
tRp1061
g2
(g3
(S'S32'
I0
I1
tRp1062
(I3
S'|'
NNNI32
I1
I0
tbS'/aviation/airport/focus_city_for'
tRp1063
sg1003
g1001
sg831
g829
sg387
g385
sg2
(g3
(S'S80'
I0
I1
tRp1064
(I3
S'|'
NNNI80
I1
I0
tbS'/base/bioventurist/science_or_technology_company/develops_treatments_for_disease'
tRp1065
g2
(g3
(S'S56'
I0
I1
tRp1066
(I3
S'|'
NNNI56
I1
I0
tbS'/base/bioventurist/bv_medical_condition/company_involved'
tRp1067
sg843
g841
sg2
(g3
(S'S47'
I0
I1
tRp1068
(I3
S'|'
NNNI47
I1
I0
tbS'/olympics/olympic_sport/olympic_games_contested'
tRp1069
g2
(g3
(S'S30'
I0
I1
tRp1070
(I3
S'|'
NNNI30
I1
I0
tbS'/olympics/olympic_games/sports'
tRp1071
sg375
g373
sg255
g253
sg2
(g3
(S'S40'
I0
I1
tRp1072
(I3
S'|'
NNNI40
I1
I0
tbS'/basketball/basketball_player/position_s'
tRp1073
g2
(g3
(S'S39'
I0
I1
tRp1074
(I3
S'|'
NNNI39
I1
I0
tbS'/basketball/basketball_position/players'
tRp1075
sg259
g257
sg2
(g3
(S'S63'
I0
I1
tRp1076
(I3
S'|'
NNNI63
I1
I0
tbS'/award/award_ceremony/awards_presented./award/award_honor/award'
tRp1077
g2
(g3
(S'S57'
I0
I1
tRp1078
(I3
S'|'
NNNI57
I1
I0
tbS'/award/award_category/winners./award/award_honor/ceremony'
tRp1079
sg929
g927
sg2
(g3
(S'S80'
I0
I1
tRp1080
(I3
S'|'
NNNI80
I1
I0
tbS'/organization/organization/parent./organization/organization_relationship/parent'
tRp1081
g2
(g3
(S'S78'
I0
I1
tRp1082
(I3
S'|'
NNNI78
I1
I0
tbS'/organization/organization/child./organization/organization_relationship/child'
tRp1083
sg653
g651
sg2
(g3
(S'S75'
I0
I1
tRp1084
(I3
S'|'
NNNI75
I1
I0
tbS'/olympics/olympic_medal/medal_winners./olympics/olympic_medal_honor/country'
tRp1085
g2
(g3
(S'S86'
I0
I1
tRp1086
(I3
S'|'
NNNI86
I1
I0
tbS'/olympics/olympic_participating_country/medals_won./olympics/olympic_medal_honor/medal'
tRp1087
sg2
(g3
(S'S40'
I0
I1
tRp1088
(I3
S'|'
NNNI40
I1
I0
tbS'/medicine/medical_treatment/side_effects'
tRp1089
g2
(g3
(S'S32'
I0
I1
tRp1090
(I3
S'|'
NNNI32
I1
I0
tbS'/medicine/symptom/side_effect_of'
tRp1091
sg187
g185
sg2
(g3
(S'S59'
I0
I1
tRp1092
(I3
S'|'
NNNI59
I1
I0
tbS'/fictional_universe/fictional_character/powers_or_abilities'
tRp1093
g2
(g3
(S'S65'
I0
I1
tRp1094
(I3
S'|'
NNNI65
I1
I0
tbS'/fictional_universe/character_powers/characters_with_this_ability'
tRp1095
sg2
(g3
(S'S37'
I0
I1
tRp1096
(I3
S'|'
NNNI37
I1
I0
tbS'/business/business_operation/industry'
tRp1097
g2
(g3
(S'S28'
I0
I1
tRp1098
(I3
S'|'
NNNI28
I1
I0
tbS'/business/industry/companies'
tRp1099
sg2
(g3
(S'S53'
I0
I1
tRp1100
(I3
S'|'
NNNI53
I1
I0
tbS'/education/educational_institution/parent_institution'
tRp1101
g2
(g3
(S'S68'
I0
I1
tRp1102
(I3
S'|'
NNNI68
I1
I0
tbS'/education/educational_institution/subsidiary_or_constituent_schools'
tRp1103
sg2
(g3
(S'S42'
I0
I1
tRp1104
(I3
S'|'
NNNI42
I1
I0
tbS'/film/film_set_designer/film_sets_designed'
tRp1105
g2
(g3
(S'S33'
I0
I1
tRp1106
(I3
S'|'
NNNI33
I1
I0
tbS'/film/film/film_set_decoration_by'
tRp1107
sg2
(g3
(S'S83'
I0
I1
tRp1108
(I3
S'|'
NNNI83
I1
I0
tbS'/american_football/football_player/former_teams./sports/sports_team_roster/position'
tRp1109
g2
(g3
(S'S93'
I0
I1
tRp1110
(I3
S'|'
NNNI93
I1
I0
tbS'/sports/sports_position/players./american_football/football_historical_roster_position/player'
tRp1111
sg2
(g3
(S'S97'
I0
I1
tRp1112
(I3
S'|'
NNNI97
I1
I0
tbS'/tv/non_character_role/tv_regular_personal_appearances./tv/tv_regular_personal_appearance/program'
tRp1113
g2
(g3
(S'S94'
I0
I1
tRp1114
(I3
S'|'
NNNI94
I1
I0
tbS'/tv/tv_program/regular_personal_appearances./tv/tv_regular_personal_appearance/appearance_type'
tRp1115
sg2
(g3
(S'S64'
I0
I1
tRp1116
(I3
S'|'
NNNI64
I1
I0
tbS'/people/appointed_role/appointment./people/appointment/appointee'
tRp1117
g2
(g3
(S'S61'
I0
I1
tRp1118
(I3
S'|'
NNNI61
I1
I0
tbS'/people/appointee/position./people/appointment/appointed_role'
tRp1119
sg2
(g3
(S'S84'
I0
I1
tRp1120
(I3
S'|'
NNNI84
I1
I0
tbS'/base/crime/convicted_criminal/convictions./base/crime/criminal_conviction/guilty_of'
tRp1121
g2
(g3
(S'S102'
I0
I1
tRp1122
(I3
S'|'
NNNI102
I1
I0
tbS'/base/fight/crime_type/people_convicted_of_this_crime./base/crime/criminal_conviction/convicted_person'
tRp1123
sg2
(g3
(S'S43'
I0
I1
tRp1124
(I3
S'|'
NNNI43
I1
I0
tbS'/base/americancomedy/comedian/comedy_genres'
tRp1125
g2
(g3
(S'S57'
I0
I1
tRp1126
(I3
S'|'
NNNI57
I1
I0
tbS'/base/americancomedy/comedy_genre/comedians_in_this_genre'
tRp1127
sg969
g967
sg2
(g3
(S'S24'
I0
I1
tRp1128
(I3
S'|'
NNNI24
I1
I0
tbS'/medicine/disease/causes'
tRp1129
g2
(g3
(S'S32'
I0
I1
tRp1130
(I3
S'|'
NNNI32
I1
I0
tbS'/medicine/disease_cause/diseases'
tRp1131
sg773
g771
sg2
(g3
(S'S58'
I0
I1
tRp1132
(I3
S'|'
NNNI58
I1
I0
tbS'/government/governmental_jurisdiction/government_positions'
tRp1133
g2
(g3
(S'S51'
I0
I1
tRp1134
(I3
S'|'
NNNI51
I1
I0
tbS'/government/government_office_or_title/jurisdiction'
tRp1135
sg2
(g3
(S'S25'
I0
I1
tRp1136
(I3
S'|'
NNNI25
I1
I0
tbS'/medicine/drug/drug_class'
tRp1137
g2
(g3
(S'S26'
I0
I1
tRp1138
(I3
S'|'
NNNI26
I1
I0
tbS'/medicine/drug_class/drugs'
tRp1139
sg2
(g3
(S'S95'
I0
I1
tRp1140
(I3
S'|'
NNNI95
I1
I0
tbS'/government/governmental_body/members./government/government_position_held/district_represented'
tRp1141
g2
(g3
(S'S101'
I0
I1
tRp1142
(I3
S'|'
NNNI101
I1
I0
tbS'/government/political_district/representatives./government/government_position_held/governmental_body'
tRp1143
sg127
g125
sg2
(g3
(S'S24'
I0
I1
tRp1144
(I3
S'|'
NNNI24
I1
I0
tbS'/religion/deity/deity_of'
tRp1145
g2
(g3
(S'S26'
I0
I1
tRp1146
(I3
S'|'
NNNI26
I1
I0
tbS'/religion/religion/deities'
tRp1147
sg2
(g3
(S'S18'
I0
I1
tRp1148
(I3
S'|'
NNNI18
I1
I0
tbS'/film/film/prequel'
tRp1149
g2
(g3
(S'S17'
I0
I1
tRp1150
(I3
S'|'
NNNI17
I1
I0
tbS'/film/film/sequel'
tRp1151
sg2
(g3
(S'S26'
I0
I1
tRp1152
(I3
S'|'
NNNI26
I1
I0
tbS'/tv/tv_subject/tv_programs'
tRp1153
g2
(g3
(S'S23'
I0
I1
tRp1154
(I3
S'|'
NNNI23
I1
I0
tbS'/tv/tv_program/subjects'
tRp1155
sg1043
g1041
sg2
(g3
(S'S61'
I0
I1
tRp1156
(I3
S'|'
NNNI61
I1
I0
tbS'/tv/tv_actor/starring_roles./tv/regular_tv_appearance/seasons'
tRp1157
g2
(g3
(S'S65'
I0
I1
tRp1158
(I3
S'|'
NNNI65
I1
I0
tbS'/tv/tv_series_season/regular_cast./tv/regular_tv_appearance/actor'
tRp1159
sg2
(g3
(S'S33'
I0
I1
tRp1160
(I3
S'|'
NNNI33
I1
I0
tbS'/book/newspaper/circulation_areas'
tRp1161
g2
(g3
(S'S50'
I0
I1
tRp1162
(I3
S'|'
NNNI50
I1
I0
tbS'/periodicals/newspaper_circulation_area/newspapers'
tRp1163
sg2
(g3
(S'S21'
I0
I1
tRp1164
(I3
S'|'
NNNI21
I1
I0
tbS'/film/film/written_by'
tRp1165
g2
(g3
(S'S17'
I0
I1
tRp1166
(I3
S'|'
NNNI17
I1
I0
tbS'/film/writer/film'
tRp1167
sg183
g181
sg2
(g3
(S'S85'
I0
I1
tRp1168
(I3
S'|'
NNNI85
I1
I0
tbS'/education/field_of_study/students_majoring./education/education/major_field_of_study'
tRp1169
g1169
sg2
(g3
(S'S52'
I0
I1
tRp1170
(I3
S'|'
NNNI52
I1
I0
tbS'/tv/tv_actor/guest_roles./tv/tv_guest_role/character'
tRp1171
g2
(g3
(S'S64'
I0
I1
tRp1172
(I3
S'|'
NNNI64
I1
I0
tbS'/tv/tv_character/appeared_in_tv_episodes./tv/tv_guest_role/actor'
tRp1173
sg879
g877
sg2
(g3
(S'S67'
I0
I1
tRp1174
(I3
S'|'
NNNI67
I1
I0
tbS'/base/popstra/celebrity/wears./base/popstra/fashion_choice/designer'
tRp1175
g2
(g3
(S'S80'
I0
I1
tRp1176
(I3
S'|'
NNNI80
I1
I0
tbS'/base/popstra/company/fashion_choice./base/popstra/fashion_choice/fashion_wearer'
tRp1177
sg2
(g3
(S'S62'
I0
I1
tRp1178
(I3
S'|'
NNNI62
I1
I0
tbS'/tv/tv_producer/programs_produced./tv/tv_producer_term/program'
tRp1179
g2
(g3
(S'S56'
I0
I1
tRp1180
(I3
S'|'
NNNI56
I1
I0
tbS'/tv/tv_program/tv_producer./tv/tv_producer_term/producer'
tRp1181
sg2
(g3
(S'S30'
I0
I1
tRp1182
(I3
S'|'
NNNI30
I1
I0
tbS'/location/location/containedby'
tRp1183
g2
(g3
(S'S27'
I0
I1
tRp1184
(I3
S'|'
NNNI27
I1
I0
tbS'/location/location/contains'
tRp1185
sg681
g679
sg2
(g3
(S'S95'
I0
I1
tRp1186
(I3
S'|'
NNNI95
I1
I0
tbS'/travel/transport_operator/travel_destinations_served./travel/transportation/travel_destination'
tRp1187
g2
(g3
(S'S84'
I0
I1
tRp1188
(I3
S'|'
NNNI84
I1
I0
tbS'/travel/travel_destination/how_to_get_here./travel/transportation/transport_operator'
tRp1189
sg2
(g3
(S'S102'
I0
I1
tRp1190
(I3
S'|'
NNNI102
I1
I0
tbS'/business/board_member/organization_board_memberships./organization/organization_board_membership/role'
tRp1191
g2
(g3
(S'S79'
I0
I1
tRp1192
(I3
S'|'
NNNI79
I1
I0
tbS'/organization/role/governors./organization/organization_board_membership/member'
tRp1193
sg2
(g3
(S'S58'
I0
I1
tRp1194
(I3
S'|'
NNNI58
I1
I0
tbS'/computer/programming_language_designer/languages_designed'
tRp1195
g2
(g3
(S'S49'
I0
I1
tRp1196
(I3
S'|'
NNNI49
I1
I0
tbS'/computer/programming_language/language_designers'
tRp1197
sg143
g141
sg2
(g3
(S'S24'
I0
I1
tRp1198
(I3
S'|'
NNNI24
I1
I0
tbS'/people/ethnicity/people'
tRp1199
g2
(g3
(S'S24'
I0
I1
tRp1200
(I3
S'|'
NNNI24
I1
I0
tbS'/people/person/ethnicity'
tRp1201
sg191
g189
sg1163
g1161
sg2
(g3
(S'S79'
I0
I1
tRp1202
(I3
S'|'
NNNI79
I1
I0
tbS'/american_football/football_player/current_team./sports/sports_team_roster/team'
tRp1203
g2
(g3
(S'S77'
I0
I1
tRp1204
(I3
S'|'
NNNI77
I1
I0
tbS'/sports/sports_team/roster./american_football/football_roster_position/player'
tRp1205
sg2
(g3
(S'S34'
I0
I1
tRp1206
(I3
S'|'
NNNI34
I1
I0
tbS'/people/profession/specializations'
tRp1207
g2
(g3
(S'S36'
I0
I1
tRp1208
(I3
S'|'
NNNI36
I1
I0
tbS'/people/profession/specialization_of'
tRp1209
sg2
(g3
(S'S32'
I0
I1
tRp1210
(I3
S'|'
NNNI32
I1
I0
tbS'/cvg/computer_game_subject/games'
tRp1211
g2
(g3
(S'S32'
I0
I1
tRp1212
(I3
S'|'
NNNI32
I1
I0
tbS'/cvg/computer_videogame/subjects'
tRp1213
sg1015
g1013
sg1205
g1203
sg2
(g3
(S'S19'
I0
I1
tRp1214
(I3
S'|'
NNNI19
I1
I0
tbS'/film/film/subjects'
tRp1215
g2
(g3
(S'S24'
I0
I1
tRp1216
(I3
S'|'
NNNI24
I1
I0
tbS'/film/film_subject/films'
tRp1217
sg2
(g3
(S'S56'
I0
I1
tRp1218
(I3
S'|'
NNNI56
I1
I0
tbS'/film/film_production_designer/films_production_designed'
tRp1219
g2
(g3
(S'S36'
I0
I1
tRp1220
(I3
S'|'
NNNI36
I1
I0
tbS'/film/film/film_production_design_by'
tRp1221
sg543
g541
sg915
g913
sg2
(g3
(S'S71'
I0
I1
tRp1222
(I3
S'|'
NNNI71
I1
I0
tbS'/celebrities/celebrity/celebrity_friends./celebrities/friendship/friend'
tRp1223
g1223
sg2
(g3
(S'S121'
I0
I1
tRp1224
(I3
S'|'
NNNI121
I1
I0
tbS'/protected_sites/natural_or_cultural_site_designation/sites./protected_sites/natural_or_cultural_site_listing/listed_site'
tRp1225
g2
(g3
(S'S130'
I0
I1
tRp1226
(I3
S'|'
NNNI130
I1
I0
tbS'/protected_sites/listed_site/designation_as_natural_or_cultural_site./protected_sites/natural_or_cultural_site_listing/designation'
tRp1227
sg2
(g3
(S'S63'
I0
I1
tRp1228
(I3
S'|'
NNNI63
I1
I0
tbS'/business/employer/employees./business/employment_tenure/person'
tRp1229
g2
(g3
(S'S69'
I0
I1
tRp1230
(I3
S'|'
NNNI69
I1
I0
tbS'/people/person/employment_history./business/employment_tenure/company'
tRp1231
sg2
(g3
(S'S30'
I0
I1
tRp1232
(I3
S'|'
NNNI30
I1
I0
tbS'/biology/animal_breed/breed_of'
tRp1233
g2
(g3
(S'S35'
I0
I1
tRp1234
(I3
S'|'
NNNI35
I1
I0
tbS'/biology/domesticated_animal/breeds'
tRp1235
sg1087
g1085
sg1167
g1165
sg1155
g1153
sg271
g269
sg473
g471
sg2
(g3
(S'S38'
I0
I1
tRp1236
(I3
S'|'
NNNI38
I1
I0
tbS'/base/fight/crime_type/includes_crimes'
tRp1237
g2
(g3
(S'S41'
I0
I1
tRp1238
(I3
S'|'
NNNI41
I1
I0
tbS'/base/fight/crime_type/included_in_crimes'
tRp1239
sg2
(g3
(S'S46'
I0
I1
tRp1240
(I3
S'|'
NNNI46
I1
I0
tbS'/user/szaijan/fantasy_football/position/player'
tRp1241
g2
(g3
(S'S46'
I0
I1
tRp1242
(I3
S'|'
NNNI46
I1
I0
tbS'/user/szaijan/fantasy_football/player/position'
tRp1243
sg2
(g3
(S'S85'
I0
I1
tRp1244
(I3
S'|'
NNNI85
I1
I0
tbS'/education/academic/appointments_fellowships_etc./education/academic_post/institution'
tRp1245
g2
(g3
(S'S93'
I0
I1
tRp1246
(I3
S'|'
NNNI93
I1
I0
tbS'/education/academic_institution/visiting_scholars_fellows_etc./education/academic_post/person'
tRp1247
sg2
(g3
(S'S71'
I0
I1
tRp1248
(I3
S'|'
NNNI71
I1
I0
tbS'/tv/tv_writer/tv_programs./tv/tv_program_writer_relationship/tv_program'
tRp1249
g2
(g3
(S'S74'
I0
I1
tRp1250
(I3
S'|'
NNNI74
I1
I0
tbS'/tv/tv_program/recurring_writers./tv/tv_program_writer_relationship/writer'
tRp1251
sg2
(g3
(S'S47'
I0
I1
tRp1252
(I3
S'|'
NNNI47
I1
I0
tbS'/computer/operating_system/includes_os_versions'
tRp1253
g2
(g3
(S'S36'
I0
I1
tRp1254
(I3
S'|'
NNNI36
I1
I0
tbS'/computer/operating_system/parent_os'
tRp1255
sg883
g881
sg2
(g3
(S'S29'
I0
I1
tRp1256
(I3
S'|'
NNNI29
I1
I0
tbS'/religion/religion/is_part_of'
tRp1257
g2
(g3
(S'S27'
I0
I1
tRp1258
(I3
S'|'
NNNI27
I1
I0
tbS'/religion/religion/includes'
tRp1259
sg2
(g3
(S'S86'
I0
I1
tRp1260
(I3
S'|'
NNNI86
I1
I0
tbS'/cvg/game_voice_actor/computer_game_voice_performances./cvg/game_performance/character'
tRp1261
g2
(g3
(S'S59'
I0
I1
tRp1262
(I3
S'|'
NNNI59
I1
I0
tbS'/cvg/game_character/games./cvg/game_performance/voice_actor'
tRp1263
sg2
(g3
(S'S112'
I0
I1
tRp1264
(I3
S'|'
NNNI112
I1
I0
tbS'/american_football/football_team/historical_roster./american_football/football_historical_roster_position/player'
tRp1265
g2
(g3
(S'S107'
I0
I1
tRp1266
(I3
S'|'
NNNI107
I1
I0
tbS'/american_football/football_player/former_teams./american_football/football_historical_roster_position/team'
tRp1267
sg2
(g3
(S'S91'
I0
I1
tRp1268
(I3
S'|'
NNNI91
I1
I0
tbS'/base/twinnedtowns/twinned_town/twinned_with./base/twinnedtowns/town_twinning/twinned_towns'
tRp1269
g1269
sg2
(g3
(S'S38'
I0
I1
tRp1270
(I3
S'|'
NNNI38
I1
I0
tbS'/base/parody/parodied_subject/parodies'
tRp1271
g2
(g3
(S'S29'
I0
I1
tRp1272
(I3
S'|'
NNNI29
I1
I0
tbS'/base/parody/parody/parody_of'
tRp1273
sg717
g715
sg2
(g3
(S'S48'
I0
I1
tRp1274
(I3
S'|'
NNNI48
I1
I0
tbS'/media_common/literary_genre/books_in_this_genre'
tRp1275
g2
(g3
(S'S16'
I0
I1
tRp1276
(I3
S'|'
NNNI16
I1
I0
tbS'/book/book/genre'
tRp1277
sg2
(g3
(S'S89'
I0
I1
tRp1278
(I3
S'|'
NNNI89
I1
I0
tbS'/base/localfood/produce/availability./base/localfood/produce_availability/seasonal_months'
tRp1279
g2
(g3
(S'S93'
I0
I1
tRp1280
(I3
S'|'
NNNI93
I1
I0
tbS'/base/localfood/seasonal_month/produce_available./base/localfood/produce_availability/produce'
tRp1281
sg2
(g3
(S'S35'
I0
I1
tRp1282
(I3
S'|'
NNNI35
I1
I0
tbS'/language/language_family/languages'
tRp1283
g2
(g3
(S'S40'
I0
I1
tRp1284
(I3
S'|'
NNNI40
I1
I0
tbS'/language/human_language/language_family'
tRp1285
sg311
g309
sg599
g597
sg2
(g3
(S'S42'
I0
I1
tRp1286
(I3
S'|'
NNNI42
I1
I0
tbS'/education/field_of_study/subdiscipline_of'
tRp1287
g2
(g3
(S'S40'
I0
I1
tRp1288
(I3
S'|'
NNNI40
I1
I0
tbS'/education/field_of_study/subdisciplines'
tRp1289
sg2
(g3
(S'S73'
I0
I1
tRp1290
(I3
S'|'
NNNI73
I1
I0
tbS'/music/performance_role/track_performances./music/track_contribution/role'
tRp1291
g1291
sg2
(g3
(S'S39'
I0
I1
tRp1292
(I3
S'|'
NNNI39
I1
I0
tbS'/broadcast/tv_station_owner/tv_stations'
tRp1293
g2
(g3
(S'S27'
I0
I1
tRp1294
(I3
S'|'
NNNI27
I1
I0
tbS'/broadcast/tv_station/owner'
tRp1295
sg2
(g3
(S'S25'
I0
I1
tRp1296
(I3
S'|'
NNNI25
I1
I0
tbS'/sports/sports_team/sport'
tRp1297
g2
(g3
(S'S19'
I0
I1
tRp1298
(I3
S'|'
NNNI19
I1
I0
tbS'/sports/sport/teams'
tRp1299
sg1099
g1097
sg2
(g3
(S'S32'
I0
I1
tRp1300
(I3
S'|'
NNNI32
I1
I0
tbS'/film/film/film_casting_director'
tRp1301
g2
(g3
(S'S50'
I0
I1
tRp1302
(I3
S'|'
NNNI50
I1
I0
tbS'/film/film_casting_director/films_casting_directed'
tRp1303
sg2
(g3
(S'S67'
I0
I1
tRp1304
(I3
S'|'
NNNI67
I1
I0
tbS'/award/award_winning_work/awards_won./award/award_honor/honored_for'
tRp1305
g1305
sg2
(g3
(S'S50'
I0
I1
tRp1306
(I3
S'|'
NNNI50
I1
I0
tbS'/fictional_universe/fictional_character/occupation'
tRp1307
g2
(g3
(S'S72'
I0
I1
tRp1308
(I3
S'|'
NNNI72
I1
I0
tbS'/fictional_universe/character_occupation/characters_with_this_occupation'
tRp1309
sg2
(g3
(S'S37'
I0
I1
tRp1310
(I3
S'|'
NNNI37
I1
I0
tbS'/media_common/adaptation/adapted_from'
tRp1311
g2
(g3
(S'S38'
I0
I1
tRp1312
(I3
S'|'
NNNI38
I1
I0
tbS'/media_common/adapted_work/adaptations'
tRp1313
sg2
(g3
(S'S36'
I0
I1
tRp1314
(I3
S'|'
NNNI36
I1
I0
tbS'/location/us_county/hud_county_place'
tRp1315
g2
(g3
(S'S33'
I0
I1
tRp1316
(I3
S'|'
NNNI33
I1
I0
tbS'/location/hud_county_place/county'
tRp1317
sg1079
g1077
sg2
(g3
(S'S76'
I0
I1
tRp1318
(I3
S'|'
NNNI76
I1
I0
tbS'/aviation/airline/airports_served./aviation/airline_airport_presence/airport'
tRp1319
g2
(g3
(S'S69'
I0
I1
tRp1320
(I3
S'|'
NNNI69
I1
I0
tbS'/aviation/airport/airlines./aviation/airline_airport_presence/airline'
tRp1321
sg1039
g1037
sg2
(g3
(S'S67'
I0
I1
tRp1322
(I3
S'|'
NNNI67
I1
I0
tbS'/theater/theater_character/portrayed_by./theater/theater_role/actor'
tRp1323
g2
(g3
(S'S63'
I0
I1
tRp1324
(I3
S'|'
NNNI63
I1
I0
tbS'/theater/theater_actor/theater_roles./theater/theater_role/role'
tRp1325
sg2
(g3
(S'S64'
I0
I1
tRp1326
(I3
S'|'
NNNI64
I1
I0
tbS'/fictional_universe/person_in_fiction/representations_in_fiction'
tRp1327
g2
(g3
(S'S48'
I0
I1
tRp1328
(I3
S'|'
NNNI48
I1
I0
tbS'/fictional_universe/fictional_character/based_on'
tRp1329
sg239
g237
sg2
(g3
(S'S66'
I0
I1
tRp1330
(I3
S'|'
NNNI66
I1
I0
tbS'/people/person/education./education/education/major_field_of_study'
tRp1331
g2
(g3
(S'S72'
I0
I1
tRp1332
(I3
S'|'
NNNI72
I1
I0
tbS'/education/field_of_study/students_majoring./education/education/student'
tRp1333
sg2
(g3
(S'S61'
I0
I1
tRp1334
(I3
S'|'
NNNI61
I1
I0
tbS'/award/award_winning_work/awards_won./award/award_honor/award'
tRp1335
g2
(g3
(S'S60'
I0
I1
tRp1336
(I3
S'|'
NNNI60
I1
I0
tbS'/award/award_category/winners./award/award_honor/honored_for'
tRp1337
sg2
(g3
(S'S50'
I0
I1
tRp1338
(I3
S'|'
NNNI50
I1
I0
tbS'/user/tsegaran/computer/algorithm_family/algorithm'
tRp1339
g2
(g3
(S'S40'
I0
I1
tRp1340
(I3
S'|'
NNNI40
I1
I0
tbS'/user/tsegaran/computer/algorithm/family'
tRp1341
sg2
(g3
(S'S19'
I0
I1
tRp1342
(I3
S'|'
NNNI19
I1
I0
tbS'/music/artist/album'
tRp1343
g2
(g3
(S'S19'
I0
I1
tRp1344
(I3
S'|'
NNNI19
I1
I0
tbS'/music/album/artist'
tRp1345
sg2
(g3
(S'S46'
I0
I1
tRp1346
(I3
S'|'
NNNI46
I1
I0
tbS'/common/topic/webpage./common/webpage/resource'
tRp1347
g2
(g3
(S'S50'
I0
I1
tRp1348
(I3
S'|'
NNNI50
I1
I0
tbS'/common/resource/annotations./common/webpage/topic'
tRp1349
sg649
g647
sg2
(g3
(S'S70'
I0
I1
tRp1350
(I3
S'|'
NNNI70
I1
I0
tbS'/base/events/performer/performances./base/events/performance/performer'
tRp1351
g1351
sg2
(g3
(S'S30'
I0
I1
tRp1352
(I3
S'|'
NNNI30
I1
I0
tbS'/geography/island/island_group'
tRp1353
g2
(g3
(S'S40'
I0
I1
tRp1354
(I3
S'|'
NNNI40
I1
I0
tbS'/geography/island_group/islands_in_group'
tRp1355
sg2
(g3
(S'S91'
I0
I1
tRp1356
(I3
S'|'
NNNI91
I1
I0
tbS'/military/military_commander/military_commands./military/military_command/military_conflict'
tRp1357
g2
(g3
(S'S84'
I0
I1
tRp1358
(I3
S'|'
NNNI84
I1
I0
tbS'/military/military_conflict/commanders./military/military_command/military_commander'
tRp1359
sg2
(g3
(S'S33'
I0
I1
tRp1360
(I3
S'|'
NNNI33
I1
I0
tbS'/education/school/school_district'
tRp1361
g2
(g3
(S'S34'
I0
I1
tRp1362
(I3
S'|'
NNNI34
I1
I0
tbS'/education/school_district/schools'
tRp1363
sg2
(g3
(S'S48'
I0
I1
tRp1364
(I3
S'|'
NNNI48
I1
I0
tbS'/fictional_universe/fictional_character/children'
tRp1365
g2
(g3
(S'S47'
I0
I1
tRp1366
(I3
S'|'
NNNI47
I1
I0
tbS'/fictional_universe/fictional_character/parents'
tRp1367
sg489
g487
sg2
(g3
(S'S42'
I0
I1
tRp1368
(I3
S'|'
NNNI42
I1
I0
tbS'/base/argumentmaps/original_idea/innovator'
tRp1369
g2
(g3
(S'S43'
I0
I1
tRp1370
(I3
S'|'
NNNI43
I1
I0
tbS'/base/argumentmaps/innovator/original_ideas'
tRp1371
sg1295
g1293
sg215
g213
sg2
(g3
(S'S52'
I0
I1
tRp1372
(I3
S'|'
NNNI52
I1
I0
tbS'/award/recurring_competition/individual_competitions'
tRp1373
g2
(g3
(S'S52'
I0
I1
tRp1374
(I3
S'|'
NNNI52
I1
I0
tbS'/award/competition/instance_of_recurring_competition'
tRp1375
sg2
(g3
(S'S46'
I0
I1
tRp1376
(I3
S'|'
NNNI46
I1
I0
tbS'/people/profession/people_with_this_profession'
tRp1377
g2
(g3
(S'S25'
I0
I1
tRp1378
(I3
S'|'
NNNI25
I1
I0
tbS'/people/person/profession'
tRp1379
sg391
g389
sg2
(g3
(S'S52'
I0
I1
tRp1380
(I3
S'|'
NNNI52
I1
I0
tbS'/base/activism/activism_issue/activist_organizations'
tRp1381
g2
(g3
(S'S44'
I0
I1
tRp1382
(I3
S'|'
NNNI44
I1
I0
tbS'/base/activism/organization/area_of_activism'
tRp1383
sg2
(g3
(S'S71'
I0
I1
tRp1384
(I3
S'|'
NNNI71
I1
I0
tbS'/base/popstra/celebrity/lived_with./base/popstra/lived_with/participant'
tRp1385
g1385
sg1359
g1357
sg2
(g3
(S'S59'
I0
I1
tRp1386
(I3
S'|'
NNNI59
I1
I0
tbS'/architecture/structure/owner./architecture/ownership/owner'
tRp1387
g2
(g3
(S'S94'
I0
I1
tRp1388
(I3
S'|'
NNNI94
I1
I0
tbS'/architecture/architectural_structure_owner/structures_owned./architecture/ownership/structure'
tRp1389
sg2
(g3
(S'S73'
I0
I1
tRp1390
(I3
S'|'
NNNI73
I1
I0
tbS'/sports/sports_position/players./ice_hockey/hockey_roster_position/player'
tRp1391
g2
(g3
(S'S74'
I0
I1
tRp1392
(I3
S'|'
NNNI74
I1
I0
tbS'/ice_hockey/hockey_player/current_team./sports/sports_team_roster/position'
tRp1393
sg2
(g3
(S'S48'
I0
I1
tRp1394
(I3
S'|'
NNNI48
I1
I0
tbS'/food/dietary_restriction/compatible_ingredients'
tRp1395
g2
(g3
(S'S53'
I0
I1
tRp1396
(I3
S'|'
NNNI53
I1
I0
tbS'/food/ingredient/compatible_with_dietary_restrictions'
tRp1397
sg1115
g1113
sg147
g145
sg275
g273
sg2
(g3
(S'S101'
I0
I1
tRp1398
(I3
S'|'
NNNI101
I1
I0
tbS'/aviation/aircraft_owner/aircraft_fleet_composition./aviation/aircraft_ownership_count/aircraft_model'
tRp1399
g2
(g3
(S'S90'
I0
I1
tRp1400
(I3
S'|'
NNNI90
I1
I0
tbS'/aviation/aircraft_model/number_owned_by./aviation/aircraft_ownership_count/aircraft_owner'
tRp1401
sg2
(g3
(S'S40'
I0
I1
tRp1402
(I3
S'|'
NNNI40
I1
I0
tbS'/religion/religious_practice/practice_of'
tRp1403
g2
(g3
(S'S28'
I0
I1
tRp1404
(I3
S'|'
NNNI28
I1
I0
tbS'/religion/religion/practices'
tRp1405
sg2
(g3
(S'S35'
I0
I1
tRp1406
(I3
S'|'
NNNI35
I1
I0
tbS'/visual_art/visual_art_form/artists'
tRp1407
g2
(g3
(S'S35'
I0
I1
tRp1408
(I3
S'|'
NNNI35
I1
I0
tbS'/visual_art/visual_artist/art_forms'
tRp1409
sg2
(g3
(S'S19'
I0
I1
tRp1410
(I3
S'|'
NNNI19
I1
I0
tbS'/music/genre/albums'
tRp1411
g2
(g3
(S'S18'
I0
I1
tRp1412
(I3
S'|'
NNNI18
I1
I0
tbS'/music/album/genre'
tRp1413
sg955
g953
sg39
g37
sg2
(g3
(S'S31'
I0
I1
tRp1414
(I3
S'|'
NNNI31
I1
I0
tbS'/music/group_member/vocal_range'
tRp1415
g2
(g3
(S'S20'
I0
I1
tRp1416
(I3
S'|'
NNNI20
I1
I0
tbS'/music/voice/singers'
tRp1417
sg2
(g3
(S'S119'
I0
I1
tRp1418
(I3
S'|'
NNNI119
I1
I0
tbS'/government/governmental_jurisdiction/governing_officials./government/government_position_held/office_position_or_title'
tRp1419
g2
(g3
(S'S113'
I0
I1
tRp1420
(I3
S'|'
NNNI113
I1
I0
tbS'/government/government_office_or_title/office_holders./government/government_position_held/jurisdiction_of_office'
tRp1421
sg2
(g3
(S'S73'
I0
I1
tRp1422
(I3
S'|'
NNNI73
I1
I0
tbS'/music/performance_role/regular_performances./music/group_membership/role'
tRp1423
g1423
sg2
(g3
(S'S55'
I0
I1
tRp1424
(I3
S'|'
NNNI55
I1
I0
tbS'/tv/tv_network/programs./tv/tv_network_duration/program'
tRp1425
g2
(g3
(S'S63'
I0
I1
tRp1426
(I3
S'|'
NNNI63
I1
I0
tbS'/tv/tv_program/original_network./tv/tv_network_duration/network'
tRp1427
sg2
(g3
(S'S62'
I0
I1
tRp1428
(I3
S'|'
NNNI62
I1
I0
tbS'/tennis/tennis_player/matches_lost./tennis/tennis_match/winner'
tRp1429
g2
(g3
(S'S60'
I0
I1
tRp1430
(I3
S'|'
NNNI60
I1
I0
tbS'/tennis/tennis_player/matches_won./tennis/tennis_match/loser'
tRp1431
sg2
(g3
(S'S43'
I0
I1
tRp1432
(I3
S'|'
NNNI43
I1
I0
tbS'/film/film/starring./film/performance/actor'
tRp1433
g2
(g3
(S'S39'
I0
I1
tRp1434
(I3
S'|'
NNNI39
I1
I0
tbS'/film/actor/film./film/performance/film'
tRp1435
sg2
(g3
(S'S80'
I0
I1
tRp1436
(I3
S'|'
NNNI80
I1
I0
tbS'/olympics/olympic_athlete/country./olympics/olympic_athlete_affiliation/olympics'
tRp1437
g2
(g3
(S'S78'
I0
I1
tRp1438
(I3
S'|'
NNNI78
I1
I0
tbS'/olympics/olympic_games/athletes./olympics/olympic_athlete_affiliation/athlete'
tRp1439
sg2
(g3
(S'S81'
I0
I1
tRp1440
(I3
S'|'
NNNI81
I1
I0
tbS'/education/educational_institution/students_graduates./education/education/degree'
tRp1441
g2
(g3
(S'S86'
I0
I1
tRp1442
(I3
S'|'
NNNI86
I1
I0
tbS'/education/educational_degree/people_with_this_degree./education/education/institution'
tRp1443
sg2
(g3
(S'S40'
I0
I1
tRp1444
(I3
S'|'
NNNI40
I1
I0
tbS'/location/location/partially_containedby'
tRp1445
g2
(g3
(S'S37'
I0
I1
tRp1446
(I3
S'|'
NNNI37
I1
I0
tbS'/location/location/partially_contains'
tRp1447
sg2
(g3
(S'S95'
I0
I1
tRp1448
(I3
S'|'
NNNI95
I1
I0
tbS'/government/governmental_body/members./government/government_position_held/legislative_sessions'
tRp1449
g2
(g3
(S'S94'
I0
I1
tRp1450
(I3
S'|'
NNNI94
I1
I0
tbS'/government/legislative_session/members./government/government_position_held/governmental_body'
tRp1451
sg871
g869
sg2
(g3
(S'S33'
I0
I1
tRp1452
(I3
S'|'
NNNI33
I1
I0
tbS'/cvg/computer_videogame/cvg_genre'
tRp1453
g2
(g3
(S'S20'
I0
I1
tRp1454
(I3
S'|'
NNNI20
I1
I0
tbS'/cvg/cvg_genre/games'
tRp1455
sg1023
g1021
sg737
g735
sg227
g225
sg595
g593
sg1239
g1237
sg911
g909
sg2
(g3
(S'S115'
I0
I1
tRp1456
(I3
S'|'
NNNI115
I1
I0
tbS'/fictional_universe/fictional_character/romantically_involved_with./fictional_universe/romantic_involvement/partner'
tRp1457
g1457
sg2
(g3
(S'S93'
I0
I1
tRp1458
(I3
S'|'
NNNI93
I1
I0
tbS'/military/military_combatant/military_conflicts./military/military_combatant_group/combatants'
tRp1459
g1459
sg2
(g3
(S'S71'
I0
I1
tRp1460
(I3
S'|'
NNNI71
I1
I0
tbS'/base/popstra/business_location/customer./base/popstra/hangout/customer'
tRp1461
g2
(g3
(S'S71'
I0
I1
tRp1462
(I3
S'|'
NNNI71
I1
I0
tbS'/base/popstra/celebrity/hangout./base/popstra/hangout/business_location'
tRp1463
sg673
g671
sg1421
g1419
sg2
(g3
(S'S32'
I0
I1
tRp1464
(I3
S'|'
NNNI32
I1
I0
tbS'/internet/website_category/sites'
tRp1465
g2
(g3
(S'S26'
I0
I1
tRp1466
(I3
S'|'
NNNI26
I1
I0
tbS'/internet/website/category'
tRp1467
sg2
(g3
(S'S64'
I0
I1
tRp1468
(I3
S'|'
NNNI64
I1
I0
tbS'/people/appointer/appointment_made./people/appointment/appointee'
tRp1469
g2
(g3
(S'S59'
I0
I1
tRp1470
(I3
S'|'
NNNI59
I1
I0
tbS'/people/appointee/position./people/appointment/appointed_by'
tRp1471
sg2
(g3
(S'S45'
I0
I1
tRp1472
(I3
S'|'
NNNI45
I1
I0
tbS'/award/award_category/presenting_organization'
tRp1473
g2
(g3
(S'S63'
I0
I1
tRp1474
(I3
S'|'
NNNI63
I1
I0
tbS'/award/award_presenting_organization/award_categories_presented'
tRp1475
sg465
g463
sg327
g325
sg2
(g3
(S'S24'
I0
I1
tRp1476
(I3
S'|'
NNNI24
I1
I0
tbS'/royalty/monarch/kingdom'
tRp1477
g2
(g3
(S'S23'
I0
I1
tRp1478
(I3
S'|'
NNNI23
I1
I0
tbS'/royalty/kingdom/rulers'
tRp1479
sg2
(g3
(S'S121'
I0
I1
tRp1480
(I3
S'|'
NNNI121
I1
I0
tbS'/base/schemastaging/tv_actor_extra/regular_dubbing_performances./base/schemastaging/tv_star_dubbing_performance/character'
tRp1481
g2
(g3
(S'S121'
I0
I1
tRp1482
(I3
S'|'
NNNI121
I1
I0
tbS'/base/schemastaging/tv_character_extra/regular_dubbing_performances./base/schemastaging/tv_star_dubbing_performance/actor'
tRp1483
sg669
g667
sg2
(g3
(S'S122'
I0
I1
tRp1484
(I3
S'|'
NNNI122
I1
I0
tbS'/fictional_universe/fictional_character/siblings./fictional_universe/sibling_relationship_of_fictional_characters/siblings'
tRp1485
g1485
sg1379
g1377
sg2
(g3
(S'S28'
I0
I1
tRp1486
(I3
S'|'
NNNI28
I1
I0
tbS'/computer/software/developer'
tRp1487
g2
(g3
(S'S37'
I0
I1
tRp1488
(I3
S'|'
NNNI37
I1
I0
tbS'/computer/software_developer/software'
tRp1489
sg2
(g3
(S'S94'
I0
I1
tRp1490
(I3
S'|'
NNNI94
I1
I0
tbS'/military/military_combatant/military_commanders./military/military_command/military_commander'
tRp1491
g2
(g3
(S'S92'
I0
I1
tRp1492
(I3
S'|'
NNNI92
I1
I0
tbS'/military/military_commander/military_commands./military/military_command/military_combatant'
tRp1493
sg2
(g3
(S'S114'
I0
I1
tRp1494
(I3
S'|'
NNNI114
I1
I0
tbS'/government/government_office_category/officeholders./government/government_position_held/office_position_or_title'
tRp1495
g2
(g3
(S'S102'
I0
I1
tRp1496
(I3
S'|'
NNNI102
I1
I0
tbS'/government/government_office_or_title/office_holders./government/government_position_held/basic_title'
tRp1497
sg603
g601
sg87
g85
sg1197
g1195
sg2
(g3
(S'S46'
I0
I1
tRp1498
(I3
S'|'
NNNI46
I1
I0
tbS'/interests/collection_category/parent_category'
tRp1499
g2
(g3
(S'S45'
I0
I1
tRp1500
(I3
S'|'
NNNI45
I1
I0
tbS'/interests/collection_category/sub_categories'
tRp1501
sg1267
g1265
sg499
g497
sg1055
g1053
sg2
(g3
(S'S91'
I0
I1
tRp1502
(I3
S'|'
NNNI91
I1
I0
tbS'/exhibitions/exhibition_venue/exhibitions_at_this_venue./exhibitions/exhibition_run/sponsor'
tRp1503
g2
(g3
(S'S87'
I0
I1
tRp1504
(I3
S'|'
NNNI87
I1
I0
tbS'/exhibitions/exhibition_sponsor/exhibitions_sponsored./exhibitions/exhibition_run/venue'
tRp1505
sg2
(g3
(S'S29'
I0
I1
tRp1506
(I3
S'|'
NNNI29
I1
I0
tbS'/film/film_format/film_format'
tRp1507
g2
(g3
(S'S22'
I0
I1
tRp1508
(I3
S'|'
NNNI22
I1
I0
tbS'/film/film/film_format'
tRp1509
sg2
(g3
(S'S49'
I0
I1
tRp1510
(I3
S'|'
NNNI49
I1
I0
tbS'/geography/geographical_feature_category/features'
tRp1511
g2
(g3
(S'S40'
I0
I1
tRp1512
(I3
S'|'
NNNI40
I1
I0
tbS'/geography/geographical_feature/category'
tRp1513
sg2
(g3
(S'S24'
I0
I1
tRp1514
(I3
S'|'
NNNI24
I1
I0
tbS'/broadcast/content/genre'
tRp1515
g2
(g3
(S'S24'
I0
I1
tRp1516
(I3
S'|'
NNNI24
I1
I0
tbS'/broadcast/genre/content'
tRp1517
sg2
(g3
(S'S70'
I0
I1
tRp1518
(I3
S'|'
NNNI70
I1
I0
tbS'/ice_hockey/hockey_player/current_team./sports/sports_team_roster/team'
tRp1519
g2
(g3
(S'S68'
I0
I1
tRp1520
(I3
S'|'
NNNI68
I1
I0
tbS'/sports/sports_team/roster./ice_hockey/hockey_roster_position/player'
tRp1521
sg2
(g3
(S'S56'
I0
I1
tRp1522
(I3
S'|'
NNNI56
I1
I0
tbS'/education/fraternity_sorority/colleges_and_universities'
tRp1523
g2
(g3
(S'S49'
I0
I1
tRp1524
(I3
S'|'
NNNI49
I1
I0
tbS'/education/university/fraternities_and_sororities'
tRp1525
sg159
g157
sg63
g61
sg355
g353
sg2
(g3
(S'S76'
I0
I1
tRp1526
(I3
S'|'
NNNI76
I1
I0
tbS'/award/award_nominee/award_nominations./award/award_nomination/nominated_for'
tRp1527
g2
(g3
(S'S83'
I0
I1
tRp1528
(I3
S'|'
NNNI83
I1
I0
tbS'/award/award_nominated_work/award_nominations./award/award_nomination/award_nominee'
tRp1529
sg2
(g3
(S'S75'
I0
I1
tRp1530
(I3
S'|'
NNNI75
I1
I0
tbS'/olympics/olympic_athlete/medals_won./olympics/olympic_medal_honor/medalist'
tRp1531
g1531
sg2
(g3
(S'S69'
I0
I1
tRp1532
(I3
S'|'
NNNI69
I1
I0
tbS'/base/popstra/celebrity/canoodled./base/popstra/canoodled/participant'
tRp1533
g1533
sg267
g265
sg2
(g3
(S'S38'
I0
I1
tRp1534
(I3
S'|'
NNNI38
I1
I0
tbS'/government/governmental_body/sessions'
tRp1535
g2
(g3
(S'S43'
I0
I1
tRp1536
(I3
S'|'
NNNI43
I1
I0
tbS'/government/legislative_session/legislature'
tRp1537
sg611
g609
sg835
g833
sg2
(g3
(S'S101'
I0
I1
tRp1538
(I3
S'|'
NNNI101
I1
I0
tbS'/base/endorsements/endorsee/newspaper_endorsements./base/endorsements/newspaper_endorsement/newspaper'
tRp1539
g2
(g3
(S'S101'
I0
I1
tRp1540
(I3
S'|'
NNNI101
I1
I0
tbS'/base/endorsements/endorsing_newspaper/endorsements./base/endorsements/newspaper_endorsement/endorsee'
tRp1541
sg2
(g3
(S'S62'
I0
I1
tRp1542
(I3
S'|'
NNNI62
I1
I0
tbS'/organization/organization_scope/organizations_with_this_scope'
tRp1543
g2
(g3
(S'S43'
I0
I1
tRp1544
(I3
S'|'
NNNI43
I1
I0
tbS'/organization/organization/geographic_scope'
tRp1545
sg2
(g3
(S'S73'
I0
I1
tRp1546
(I3
S'|'
NNNI73
I1
I0
tbS'/sports/sports_league_draft/picks./sports/sports_league_draft_pick/player'
tRp1547
g2
(g3
(S'S70'
I0
I1
tRp1548
(I3
S'|'
NNNI70
I1
I0
tbS'/sports/drafted_athlete/drafted./sports/sports_league_draft_pick/draft'
tRp1549
sg1143
g1141
sg1007
g1005
sg1447
g1445
sg2
(g3
(S'S35'
I0
I1
tRp1550
(I3
S'|'
NNNI35
I1
I0
tbS'/base/eating/practicer_of_diet/diet'
tRp1551
g2
(g3
(S'S46'
I0
I1
tRp1552
(I3
S'|'
NNNI46
I1
I0
tbS'/base/eating/diets/people_who_follow_this_diet'
tRp1553
sg1231
g1229
sg2
(g3
(S'S22'
I0
I1
tRp1554
(I3
S'|'
NNNI22
I1
I0
tbS'/food/dish/ingredients'
tRp1555
g2
(g3
(S'S23'
I0
I1
tRp1556
(I3
S'|'
NNNI23
I1
I0
tbS'/food/ingredient/dishes'
tRp1557
sg263
g261
sg2
(g3
(S'S20'
I0
I1
tRp1558
(I3
S'|'
NNNI20
I1
I0
tbS'/film/film/edited_by'
tRp1559
g2
(g3
(S'S17'
I0
I1
tRp1560
(I3
S'|'
NNNI17
I1
I0
tbS'/film/editor/film'
tRp1561
sg223
g221
sg2
(g3
(S'S67'
I0
I1
tRp1562
(I3
S'|'
NNNI67
I1
I0
tbS'/base/popstra/celebrity/bought./base/popstra/product_choice/product'
tRp1563
g2
(g3
(S'S67'
I0
I1
tRp1564
(I3
S'|'
NNNI67
I1
I0
tbS'/base/popstra/product/sold_to./base/popstra/product_choice/consumer'
tRp1565
sg981
g979
sg1541
g1539
sg1467
g1465
sg2
(g3
(S'S97'
I0
I1
tRp1566
(I3
S'|'
NNNI97
I1
I0
tbS'/government/legislative_session/members./government/government_position_held/legislative_sessions'
tRp1567
g1567
sg2
(g3
(S'S131'
I0
I1
tRp1568
(I3
S'|'
NNNI131
I1
I0
tbS'/fictional_universe/fictional_job_title/fictional_characters_with_this_job./fictional_universe/fictional_employment_tenure/employee'
tRp1569
g2
(g3
(S'S103'
I0
I1
tRp1570
(I3
S'|'
NNNI103
I1
I0
tbS'/fictional_universe/fictional_character/employers./fictional_universe/fictional_employment_tenure/title'
tRp1571
sg2
(g3
(S'S68'
I0
I1
tRp1572
(I3
S'|'
NNNI68
I1
I0
tbS'/award/award_category/nominees./award/award_nomination/award_nominee'
tRp1573
g2
(g3
(S'S68'
I0
I1
tRp1574
(I3
S'|'
NNNI68
I1
I0
tbS'/award/award_nominee/award_nominations./award/award_nomination/award'
tRp1575
sg1107
g1105
sg851
g849
sg2
(g3
(S'S89'
I0
I1
tRp1576
(I3
S'|'
NNNI89
I1
I0
tbS'/olympics/olympic_participating_country/medals_won./olympics/olympic_medal_honor/medalist'
tRp1577
g2
(g3
(S'S74'
I0
I1
tRp1578
(I3
S'|'
NNNI74
I1
I0
tbS'/olympics/olympic_athlete/medals_won./olympics/olympic_medal_honor/country'
tRp1579
sg2
(g3
(S'S79'
I0
I1
tRp1580
(I3
S'|'
NNNI79
I1
I0
tbS'/sports/sports_team/roster./baseball/baseball_historical_roster_position/player'
tRp1581
g2
(g3
(S'S70'
I0
I1
tRp1582
(I3
S'|'
NNNI70
I1
I0
tbS'/baseball/baseball_player/former_teams./sports/sports_team_roster/team'
tRp1583
sg2
(g3
(S'S79'
I0
I1
tRp1584
(I3
S'|'
NNNI79
I1
I0
tbS'/soccer/football_team_manager/team./soccer/football_team_management_tenure/team'
tRp1585
g2
(g3
(S'S77'
I0
I1
tRp1586
(I3
S'|'
NNNI77
I1
I0
tbS'/soccer/football_team/manager./soccer/football_team_management_tenure/manager'
tRp1587
sg2
(g3
(S'S75'
I0
I1
tRp1588
(I3
S'|'
NNNI75
I1
I0
tbS'/tv/tv_producer_type/tv_producers_of_this_type./tv/tv_producer_term/program'
tRp1589
g2
(g3
(S'S61'
I0
I1
tRp1590
(I3
S'|'
NNNI61
I1
I0
tbS'/tv/tv_program/tv_producer./tv/tv_producer_term/producer_type'
tRp1591
sg1277
g1275
sg1537
g1535
sg2
(g3
(S'S77'
I0
I1
tRp1592
(I3
S'|'
NNNI77
I1
I0
tbS'/film/film_character/portrayed_in_films_dubbed./film/dubbing_performance/film'
tRp1593
g2
(g3
(S'S67'
I0
I1
tRp1594
(I3
S'|'
NNNI67
I1
I0
tbS'/film/film/dubbing_performances./film/dubbing_performance/character'
tRp1595
sg2
(g3
(S'S90'
I0
I1
tRp1596
(I3
S'|'
NNNI90
I1
I0
tbS'/comic_books/comic_book_fictional_universe/characters_primarily_appearing_in_this_universe'
tRp1597
g2
(g3
(S'S50'
I0
I1
tRp1598
(I3
S'|'
NNNI50
I1
I0
tbS'/comic_books/comic_book_character/primary_universe'
tRp1599
sg2
(g3
(S'S76'
I0
I1
tRp1600
(I3
S'|'
NNNI76
I1
I0
tbS'/olympics/olympic_games/medals_awarded./olympics/olympic_medal_honor/country'
tRp1601
g2
(g3
(S'S89'
I0
I1
tRp1602
(I3
S'|'
NNNI89
I1
I0
tbS'/olympics/olympic_participating_country/medals_won./olympics/olympic_medal_honor/olympics'
tRp1603
sg2
(g3
(S'S76'
I0
I1
tRp1604
(I3
S'|'
NNNI76
I1
I0
tbS'/business/sponsored_recipient/sponsorship./business/sponsorship/sponsored_by'
tRp1605
g2
(g3
(S'S71'
I0
I1
tRp1606
(I3
S'|'
NNNI71
I1
I0
tbS'/business/sponsor/sponsorship./business/sponsorship/sponsored_recipient'
tRp1607
sg503
g501
sg2
(g3
(S'S93'
I0
I1
tRp1608
(I3
S'|'
NNNI93
I1
I0
tbS'/location/statistical_region/places_imported_from./location/imports_and_exports/imported_from'
tRp1609
g2
(g3
(S'S89'
I0
I1
tRp1610
(I3
S'|'
NNNI89
I1
I0
tbS'/location/statistical_region/places_exported_to./location/imports_and_exports/exported_to'
tRp1611
sg2
(g3
(S'S91'
I0
I1
tRp1612
(I3
S'|'
NNNI91
I1
I0
tbS'/celebrities/sexual_orientation/celebrities./celebrities/sexual_orientation_phase/celebrity'
tRp1613
g2
(g3
(S'S98'
I0
I1
tRp1614
(I3
S'|'
NNNI98
I1
I0
tbS'/celebrities/celebrity/sexual_orientation./celebrities/sexual_orientation_phase/sexual_orientation'
tRp1615
sg1587
g1585
sg793
g791
sg2
(g3
(S'S58'
I0
I1
tRp1616
(I3
S'|'
NNNI58
I1
I0
tbS'/organization/organization_type/organizations_of_this_type'
tRp1617
g2
(g3
(S'S44'
I0
I1
tRp1618
(I3
S'|'
NNNI44
I1
I0
tbS'/organization/organization/organization_type'
tRp1619
sg2
(g3
(S'S25'
I0
I1
tRp1620
(I3
S'|'
NNNI25
I1
I0
tbS'/book/written_work/author'
tRp1621
g2
(g3
(S'S26'
I0
I1
tRp1622
(I3
S'|'
NNNI26
I1
I0
tbS'/book/author/works_written'
tRp1623
sg2
(g3
(S'S36'
I0
I1
tRp1624
(I3
S'|'
NNNI36
I1
I0
tbS'/tv/tv_location/tv_shows_filmed_here'
tRp1625
g2
(g3
(S'S32'
I0
I1
tRp1626
(I3
S'|'
NNNI32
I1
I0
tbS'/tv/tv_program/filming_locations'
tRp1627
sg2
(g3
(S'S78'
I0
I1
tRp1628
(I3
S'|'
NNNI78
I1
I0
tbS'/military/military_conflict/force_strengths./military/force_strength/combatant'
tRp1629
g2
(g3
(S'S89'
I0
I1
tRp1630
(I3
S'|'
NNNI89
I1
I0
tbS'/military/military_combatant/force_deployments./military/force_strength/military_conflict'
tRp1631
sg2
(g3
(S'S83'
I0
I1
tRp1632
(I3
S'|'
NNNI83
I1
I0
tbS'/base/collectives/collective/members./base/collectives/collective_membership/member'
tRp1633
g2
(g3
(S'S96'
I0
I1
tRp1634
(I3
S'|'
NNNI96
I1
I0
tbS'/base/collectives/collective_member/member_of./base/collectives/collective_membership/collective'
tRp1635
sg2
(g3
(S'S40'
I0
I1
tRp1636
(I3
S'|'
NNNI40
I1
I0
tbS'/base/activism/activist/area_of_activism'
tRp1637
g2
(g3
(S'S39'
I0
I1
tRp1638
(I3
S'|'
NNNI39
I1
I0
tbS'/base/activism/activism_issue/activists'
tRp1639
sg2
(g3
(S'S107'
I0
I1
tRp1640
(I3
S'|'
NNNI107
I1
I0
tbS'/base/newsevents/news_reported_event/news_report_s./base/newsevents/news_report/news_reporting_organisation'
tRp1641
g2
(g3
(S'S92'
I0
I1
tRp1642
(I3
S'|'
NNNI92
I1
I0
tbS'/base/newsevents/news_reporting_organisation/news_reports./base/newsevents/news_report/event'
tRp1643
sg2
(g3
(S'S27'
I0
I1
tRp1644
(I3
S'|'
NNNI27
I1
I0
tbS'/royalty/monarch/royal_line'
tRp1645
g2
(g3
(S'S43'
I0
I1
tRp1646
(I3
S'|'
NNNI43
I1
I0
tbS'/royalty/royal_line/monarchs_from_this_line'
tRp1647
sg2
(g3
(S'S95'
I0
I1
tRp1648
(I3
S'|'
NNNI95
I1
I0
tbS'/travel/transport_terminus/travel_destinations_served./travel/transportation/transport_terminus'
tRp1649
g1649
sg1517
g1515
sg797
g795
sg2
(g3
(S'S19'
I0
I1
tRp1650
(I3
S'|'
NNNI19
I1
I0
tbS'/theater/play/genre'
tRp1651
g2
(g3
(S'S42'
I0
I1
tRp1652
(I3
S'|'
NNNI42
I1
I0
tbS'/theater/theater_genre/plays_in_this_genre'
tRp1653
sg571
g569
sg1489
g1487
sg2
(g3
(S'S34'
I0
I1
tRp1654
(I3
S'|'
NNNI34
I1
I0
tbS'/media_common/netflix_genre/titles'
tRp1655
g2
(g3
(S'S42'
I0
I1
tRp1656
(I3
S'|'
NNNI42
I1
I0
tbS'/media_common/netflix_title/netflix_genres'
tRp1657
sg2
(g3
(S'S63'
I0
I1
tRp1658
(I3
S'|'
NNNI63
I1
I0
tbS'/sports/sports_position/players./sports/sports_team_roster/team'
tRp1659
g2
(g3
(S'S62'
I0
I1
tRp1660
(I3
S'|'
NNNI62
I1
I0
tbS'/sports/sports_team/roster./sports/sports_team_roster/position'
tRp1661
sg2
(g3
(S'S31'
I0
I1
tRp1662
(I3
S'|'
NNNI31
I1
I0
tbS'/education/school_mascot/school'
tRp1663
g2
(g3
(S'S41'
I0
I1
tRp1664
(I3
S'|'
NNNI41
I1
I0
tbS'/education/educational_institution/mascot'
tRp1665
sg997
g995
sg1393
g1391
sg2
(g3
(S'S69'
I0
I1
tRp1666
(I3
S'|'
NNNI69
I1
I0
tbS'/sports/sports_league_season/awards./sports/sports_award/award_winner'
tRp1667
g2
(g3
(S'S62'
I0
I1
tRp1668
(I3
S'|'
NNNI62
I1
I0
tbS'/sports/sports_award_winner/awards./sports/sports_award/season'
tRp1669
sg2
(g3
(S'S44'
I0
I1
tRp1670
(I3
S'|'
NNNI44
I1
I0
tbS'/architecture/architectural_style/architects'
tRp1671
g2
(g3
(S'S43'
I0
I1
tRp1672
(I3
S'|'
NNNI43
I1
I0
tbS'/architecture/architect/architectural_style'
tRp1673
sg2
(g3
(S'S66'
I0
I1
tRp1674
(I3
S'|'
NNNI66
I1
I0
tbS'/film/film_company/films./film/film_film_company_relationship/film'
tRp1675
g2
(g3
(S'S81'
I0
I1
tRp1676
(I3
S'|'
NNNI81
I1
I0
tbS'/film/film/other_film_companies./film/film_film_company_relationship/film_company'
tRp1677
sg1227
g1225
sg175
g173
sg1677
g1675
sg2
(g3
(S'S132'
I0
I1
tRp1678
(I3
S'|'
NNNI132
I1
I0
tbS'/american_football/football_coach_position/coaches_holding_this_position./american_football/football_historical_coach_position/coach'
tRp1679
g2
(g3
(S'S113'
I0
I1
tRp1680
(I3
S'|'
NNNI113
I1
I0
tbS'/american_football/football_coach/coaching_history./american_football/football_historical_coach_position/position'
tRp1681
sg1483
g1481
sg1513
g1511
sg1475
g1473
sg2
(g3
(S'S30'
I0
I1
tRp1682
(I3
S'|'
NNNI30
I1
I0
tbS'/book/literary_series/author_s'
tRp1683
g2
(g3
(S'S45'
I0
I1
tRp1684
(I3
S'|'
NNNI45
I1
I0
tbS'/book/author/series_written_or_contributed_to'
tRp1685
sg1139
g1137
sg363
g361
sg1463
g1461
sg2
(g3
(S'S86'
I0
I1
tRp1686
(I3
S'|'
NNNI86
I1
I0
tbS'/tv/special_tv_performance_type/starring_performances./tv/regular_tv_appearance/series'
tRp1687
g2
(g3
(S'S78'
I0
I1
tRp1688
(I3
S'|'
NNNI78
I1
I0
tbS'/tv/tv_program/regular_cast./tv/regular_tv_appearance/special_performance_type'
tRp1689
sg2
(g3
(S'S41'
I0
I1
tRp1690
(I3
S'|'
NNNI41
I1
I0
tbS'/base/petbreeds/dog_coat_color/dog_breeds'
tRp1691
g2
(g3
(S'S31'
I0
I1
tRp1692
(I3
S'|'
NNNI31
I1
I0
tbS'/base/petbreeds/dog_breed/color'
tRp1693
sg2
(g3
(S'S84'
I0
I1
tRp1694
(I3
S'|'
NNNI84
I1
I0
tbS'/military/military_post/used_by_armed_forces./military/military_post_use/armed_force'
tRp1695
g2
(g3
(S'S78'
I0
I1
tRp1696
(I3
S'|'
NNNI78
I1
I0
tbS'/military/armed_force/military_posts./military/military_post_use/military_post'
tRp1697
sg2
(g3
(S'S39'
I0
I1
tRp1698
(I3
S'|'
NNNI39
I1
I0
tbS'/computer/programming_language/dialects'
tRp1699
g2
(g3
(S'S46'
I0
I1
tRp1700
(I3
S'|'
NNNI46
I1
I0
tbS'/computer/programming_language/parent_language'
tRp1701
sg2
(g3
(S'S44'
I0
I1
tRp1702
(I3
S'|'
NNNI44
I1
I0
tbS'/film/actor/film./film/performance/character'
tRp1703
g2
(g3
(S'S63'
I0
I1
tRp1704
(I3
S'|'
NNNI63
I1
I0
tbS'/film/film_character/portrayed_in_films./film/performance/actor'
tRp1705
sg79
g77
sg2
(g3
(S'S29'
I0
I1
tRp1706
(I3
S'|'
NNNI29
I1
I0
tbS'/symbols/namesake/named_after'
tRp1707
g2
(g3
(S'S30'
I0
I1
tRp1708
(I3
S'|'
NNNI30
I1
I0
tbS'/symbols/name_source/namesakes'
tRp1709
sg2
(g3
(S'S43'
I0
I1
tRp1710
(I3
S'|'
NNNI43
I1
I0
tbS'/language/language_writing_system/languages'
tRp1711
g2
(g3
(S'S39'
I0
I1
tRp1712
(I3
S'|'
NNNI39
I1
I0
tbS'/language/human_language/writing_system'
tRp1713
sg315
g313
sg2
(g3
(S'S32'
I0
I1
tRp1714
(I3
S'|'
NNNI32
I1
I0
tbS'/cvg/cvg_designer/games_designed'
tRp1715
g2
(g3
(S'S33'
I0
I1
tRp1716
(I3
S'|'
NNNI33
I1
I0
tbS'/cvg/computer_videogame/designers'
tRp1717
sg2
(g3
(S'S55'
I0
I1
tRp1718
(I3
S'|'
NNNI55
I1
I0
tbS'/government/governmental_jurisdiction/government_bodies'
tRp1719
g2
(g3
(S'S42'
I0
I1
tRp1720
(I3
S'|'
NNNI42
I1
I0
tbS'/government/governmental_body/jurisdiction'
tRp1721
sg231
g229
sg2
(g3
(S'S42'
I0
I1
tRp1722
(I3
S'|'
NNNI42
I1
I0
tbS'/architecture/architectural_style/examples'
tRp1723
g2
(g3
(S'S43'
I0
I1
tRp1724
(I3
S'|'
NNNI43
I1
I0
tbS'/architecture/structure/architectural_style'
tRp1725
sg1673
g1671
sg2
(g3
(S'S24'
I0
I1
tRp1726
(I3
S'|'
NNNI24
I1
I0
tbS'/law/inventor/inventions'
tRp1727
g2
(g3
(S'S23'
I0
I1
tRp1728
(I3
S'|'
NNNI23
I1
I0
tbS'/law/invention/inventor'
tRp1729
sg2
(g3
(S'S119'
I0
I1
tRp1730
(I3
S'|'
NNNI119
I1
I0
tbS'/base/schemastaging/tv_program_extra/regular_dubbing_performances./base/schemastaging/tv_star_dubbing_performance/actor'
tRp1731
g2
(g3
(S'S119'
I0
I1
tRp1732
(I3
S'|'
NNNI119
I1
I0
tbS'/base/schemastaging/tv_actor_extra/regular_dubbing_performances./base/schemastaging/tv_star_dubbing_performance/program'
tRp1733
sg2
(g3
(S'S22'
I0
I1
tRp1734
(I3
S'|'
NNNI22
I1
I0
tbS'/theater/play/lyricist'
tRp1735
g2
(g3
(S'S48'
I0
I1
tRp1736
(I3
S'|'
NNNI48
I1
I0
tbS'/theater/theatrical_lyricist/play_lyrics_written'
tRp1737
sg985
g983
sg1019
g1017
sg2
(g3
(S'S65'
I0
I1
tRp1738
(I3
S'|'
NNNI65
I1
I0
tbS'/sports/pro_athlete/teams./baseball/baseball_roster_position/team'
tRp1739
g2
(g3
(S'S72'
I0
I1
tRp1740
(I3
S'|'
NNNI72
I1
I0
tbS'/baseball/baseball_team/current_roster./sports/sports_team_roster/player'
tRp1741
sg535
g533
sg2
(g3
(S'S81'
I0
I1
tRp1742
(I3
S'|'
NNNI81
I1
I0
tbS'/base/fight/sentence/convictions./base/crime/criminal_conviction/convicted_person'
tRp1743
g2
(g3
(S'S88'
I0
I1
tRp1744
(I3
S'|'
NNNI88
I1
I0
tbS'/base/crime/convicted_criminal/convictions./base/crime/criminal_conviction/sentence_type'
tRp1745
sg2
(g3
(S'S93'
I0
I1
tRp1746
(I3
S'|'
NNNI93
I1
I0
tbS'/base/americancomedy/comedy_group/members./base/americancomedy/comedy_group_membership/member'
tRp1747
g2
(g3
(S'S102'
I0
I1
tRp1748
(I3
S'|'
NNNI102
I1
I0
tbS'/base/americancomedy/comedy_group_member/belongs_to./base/americancomedy/comedy_group_membership/group'
tRp1749
sg973
g971
sg1749
g1747
sg925
g923
sg1189
g1187
sg2
(g3
(S'S123'
I0
I1
tRp1750
(I3
S'|'
NNNI123
I1
I0
tbS'/base/schemastaging/tv_program_extra/regular_dubbing_performances./base/schemastaging/tv_star_dubbing_performance/character'
tRp1751
g2
(g3
(S'S123'
I0
I1
tRp1752
(I3
S'|'
NNNI123
I1
I0
tbS'/base/schemastaging/tv_character_extra/regular_dubbing_performances./base/schemastaging/tv_star_dubbing_performance/program'
tRp1753
sg1247
g1245
sg709
g707
sg2
(g3
(S'S39'
I0
I1
tRp1754
(I3
S'|'
NNNI39
I1
I0
tbS'/people/deceased_person/place_of_burial'
tRp1755
g2
(g3
(S'S40'
I0
I1
tRp1756
(I3
S'|'
NNNI40
I1
I0
tbS'/people/place_of_interment/interred_here'
tRp1757
sg283
g281
sg1299
g1297
sg1111
g1109
sg1631
g1629
sg2
(g3
(S'S86'
I0
I1
tRp1758
(I3
S'|'
NNNI86
I1
I0
tbS'/basketball/basketball_position/player_roster_position./sports/sports_team_roster/team'
tRp1759
g2
(g3
(S'S74'
I0
I1
tRp1760
(I3
S'|'
NNNI74
I1
I0
tbS'/sports/sports_team/roster./basketball/basketball_roster_position/position'
tRp1761
sg823
g821
sg359
g357
sg2
(g3
(S'S22'
I0
I1
tRp1762
(I3
S'|'
NNNI22
I1
I0
tbS'/people/person/parents'
tRp1763
g2
(g3
(S'S23'
I0
I1
tRp1764
(I3
S'|'
NNNI23
I1
I0
tbS'/people/person/children'
tRp1765
sg689
g687
sg2
(g3
(S'S114'
I0
I1
tRp1766
(I3
S'|'
NNNI114
I1
I0
tbS'/base/contractbridge/bridge_player/first_place_finish./base/contractbridge/bridge_tournament_standings/first_place'
tRp1767
g1767
sg331
g329
sg2
(g3
(S'S27'
I0
I1
tRp1768
(I3
S'|'
NNNI27
I1
I0
tbS'/music/instrument/variation'
tRp1769
g2
(g3
(S'S24'
I0
I1
tRp1770
(I3
S'|'
NNNI24
I1
I0
tbS'/music/instrument/family'
tRp1771
sg155
g153
sg2
(g3
(S'S52'
I0
I1
tRp1772
(I3
S'|'
NNNI52
I1
I0
tbS'/film/film_costumer_designer/costume_design_for_film'
tRp1773
g2
(g3
(S'S28'
I0
I1
tRp1774
(I3
S'|'
NNNI28
I1
I0
tbS'/film/film/costume_design_by'
tRp1775
sg2
(g3
(S'S32'
I0
I1
tRp1776
(I3
S'|'
NNNI32
I1
I0
tbS'/music/artist/supporting_artists'
tRp1777
g2
(g3
(S'S37'
I0
I1
tRp1778
(I3
S'|'
NNNI37
I1
I0
tbS'/music/group_member/artists_supported'
tRp1779
sg551
g549
sg1697
g1695
sg461
g459
sg2
(g3
(S'S44'
I0
I1
tRp1780
(I3
S'|'
NNNI44
I1
I0
tbS'/medicine/medical_specialty/diseases_treated'
tRp1781
g2
(g3
(S'S37'
I0
I1
tRp1782
(I3
S'|'
NNNI37
I1
I0
tbS'/medicine/disease/medical_specialties'
tRp1783
sg2
(g3
(S'S64'
I0
I1
tRp1784
(I3
S'|'
NNNI64
I1
I0
tbS'/film/film_job/films_with_this_crew_job./film/film_crew_gig/film'
tRp1785
g2
(g3
(S'S56'
I0
I1
tRp1786
(I3
S'|'
NNNI56
I1
I0
tbS'/film/film/other_crew./film/film_crew_gig/film_crew_role'
tRp1787
sg1741
g1739
sg2
(g3
(S'S31'
I0
I1
tRp1788
(I3
S'|'
NNNI31
I1
I0
tbS'/computer/computer/manufacturer'
tRp1789
g2
(g3
(S'S53'
I0
I1
tRp1790
(I3
S'|'
NNNI53
I1
I0
tbS'/computer/computer_manufacturer_brand/computer_models'
tRp1791
sg943
g941
sg2
(g3
(S'S69'
I0
I1
tRp1792
(I3
S'|'
NNNI69
I1
I0
tbS'/film/film/personal_appearances./film/personal_film_appearance/person'
tRp1793
g2
(g3
(S'S82'
I0
I1
tRp1794
(I3
S'|'
NNNI82
I1
I0
tbS'/film/person_or_entity_appearing_in_film/films./film/personal_film_appearance/film'
tRp1795
sg2
(g3
(S'S44'
I0
I1
tRp1796
(I3
S'|'
NNNI44
I1
I0
tbS'/american_football/football_position/players'
tRp1797
g2
(g3
(S'S45'
I0
I1
tRp1798
(I3
S'|'
NNNI45
I1
I0
tbS'/american_football/football_player/position_s'
tRp1799
sg2
(g3
(S'S30'
I0
I1
tRp1800
(I3
S'|'
NNNI30
I1
I0
tbS'/award/hall_of_fame/discipline'
tRp1801
g2
(g3
(S'S44'
I0
I1
tRp1802
(I3
S'|'
NNNI44
I1
I0
tbS'/award/hall_of_fame_discipline/halls_of_fame'
tRp1803
sg2
(g3
(S'S104'
I0
I1
tRp1804
(I3
S'|'
NNNI104
I1
I0
tbS'/government/government_office_or_title/office_holders./government/government_position_held/office_holder'
tRp1805
g2
(g3
(S'S110'
I0
I1
tRp1806
(I3
S'|'
NNNI110
I1
I0
tbS'/government/politician/government_positions_held./government/government_position_held/office_position_or_title'
tRp1807
sg1791
g1789
sg2
(g3
(S'S46'
I0
I1
tRp1808
(I3
S'|'
NNNI46
I1
I0
tbS'/government/governmental_jurisdiction/agencies'
tRp1809
g2
(g3
(S'S42'
I0
I1
tRp1810
(I3
S'|'
NNNI42
I1
I0
tbS'/government/government_agency/jurisdiction'
tRp1811
sg2
(g3
(S'S95'
I0
I1
tRp1812
(I3
S'|'
NNNI95
I1
I0
tbS'/travel/transport_terminus/travel_destinations_served./travel/transportation/travel_destination'
tRp1813
g2
(g3
(S'S84'
I0
I1
tRp1814
(I3
S'|'
NNNI84
I1
I0
tbS'/travel/travel_destination/how_to_get_here./travel/transportation/transport_terminus'
tRp1815
sg1349
g1347
sg1067
g1065
sg2
(g3
(S'S112'
I0
I1
tRp1816
(I3
S'|'
NNNI112
I1
I0
tbS'/base/marchmadness/ncaa_basketball_team/ncaa_tournament_seeds./base/marchmadness/ncaa_tournament_seed/tournament'
tRp1817
g2
(g3
(S'S96'
I0
I1
tRp1818
(I3
S'|'
NNNI96
I1
I0
tbS'/base/marchmadness/ncaa_basketball_tournament/seeds./base/marchmadness/ncaa_tournament_seed/team'
tRp1819
sg1413
g1411
sg2
(g3
(S'S34'
I0
I1
tRp1820
(I3
S'|'
NNNI34
I1
I0
tbS'/sports/sports_championship/events'
tRp1821
g2
(g3
(S'S46'
I0
I1
tRp1822
(I3
S'|'
NNNI46
I1
I0
tbS'/sports/sports_championship_event/championship'
tRp1823
sg977
g975
sg481
g479
sg2
(g3
(S'S109'
I0
I1
tRp1824
(I3
S'|'
NNNI109
I1
I0
tbS'/american_football/football_coach/coaching_history./american_football/football_historical_coach_position/team'
tRp1825
g2
(g3
(S'S118'
I0
I1
tRp1826
(I3
S'|'
NNNI118
I1
I0
tbS'/american_football/football_team/historical_coaching_staff./american_football/football_historical_coach_position/coach'
tRp1827
sg1827
g1825
sg457
g455
sg207
g205
sg1627
g1625
sg323
g321
sg555
g553
sg2
(g3
(S'S26'
I0
I1
tRp1828
(I3
S'|'
NNNI26
I1
I0
tbS'/medicine/disease/symptoms'
tRp1829
g2
(g3
(S'S28'
I0
I1
tRp1830
(I3
S'|'
NNNI28
I1
I0
tbS'/medicine/symptom/symptom_of'
tRp1831
sg2
(g3
(S'S62'
I0
I1
tRp1832
(I3
S'|'
NNNI62
I1
I0
tbS'/sports/sports_league_season/awards./sports/sports_award/award'
tRp1833
g2
(g3
(S'S61'
I0
I1
tRp1834
(I3
S'|'
NNNI61
I1
I0
tbS'/sports/sports_award_type/winners./sports/sports_award/season'
tRp1835
sg1745
g1743
sg75
g73
sg1255
g1253
sg379
g377
sg1329
g1327
sg279
g277
sg935
g933
sg2
(g3
(S'S48'
I0
I1
tRp1836
(I3
S'|'
NNNI48
I1
I0
tbS'/user/alexander/philosophy/philosopher/interests'
tRp1837
g2
(g3
(S'S47'
I0
I1
tRp1838
(I3
S'|'
NNNI47
I1
I0
tbS'/user/alexander/philosophy/subject/philosophers'
tRp1839
sg119
g117
sg99
g97
sg2
(g3
(S'S22'
I0
I1
tRp1840
(I3
S'|'
NNNI22
I1
I0
tbS'/common/topic/subjects'
tRp1841
g2
(g3
(S'S24'
I0
I1
tRp1842
(I3
S'|'
NNNI24
I1
I0
tbS'/common/topic/subject_of'
tRp1843
sg2
(g3
(S'S52'
I0
I1
tRp1844
(I3
S'|'
NNNI52
I1
I0
tbS'/medicine/disease/notable_people_with_this_condition'
tRp1845
g2
(g3
(S'S57'
I0
I1
tRp1846
(I3
S'|'
NNNI57
I1
I0
tbS'/medicine/notable_person_with_medical_condition/condition'
tRp1847
sg2
(g3
(S'S92'
I0
I1
tRp1848
(I3
S'|'
NNNI92
I1
I0
tbS'/tv/tv_personality/tv_regular_appearances./tv/tv_regular_personal_appearance/appearance_type'
tRp1849
g2
(g3
(S'S96'
I0
I1
tRp1850
(I3
S'|'
NNNI96
I1
I0
tbS'/tv/non_character_role/tv_regular_personal_appearances./tv/tv_regular_personal_appearance/person'
tRp1851
sg2
(g3
(S'S95'
I0
I1
tRp1852
(I3
S'|'
NNNI95
I1
I0
tbS'/education/educational_degree/people_with_this_degree./education/education/major_field_of_study'
tRp1853
g2
(g3
(S'S71'
I0
I1
tRp1854
(I3
S'|'
NNNI71
I1
I0
tbS'/education/field_of_study/students_majoring./education/education/degree'
tRp1855
sg1051
g1049
sg1635
g1633
sg1321
g1319
sg665
g663
sg1761
g1759
sg1333
g1331
sg2
(g3
(S'S24'
I0
I1
tRp1856
(I3
S'|'
NNNI24
I1
I0
tbS'/common/webpage/category'
tRp1857
g2
(g3
(S'S39'
I0
I1
tRp1858
(I3
S'|'
NNNI39
I1
I0
tbS'/common/annotation_category/annotations'
tRp1859
sg1303
g1301
sg729
g727
sg247
g245
sg2
(g3
(S'S28'
I0
I1
tRp1860
(I3
S'|'
NNNI28
I1
I0
tbS'/broadcast/content/broadcast'
tRp1861
g2
(g3
(S'S28'
I0
I1
tRp1862
(I3
S'|'
NNNI28
I1
I0
tbS'/broadcast/broadcast/content'
tRp1863
sg1031
g1029
sg2
(g3
(S'S61'
I0
I1
tRp1864
(I3
S'|'
NNNI61
I1
I0
tbS'/comic_books/comic_book_publisher/comic_book_series_published'
tRp1865
g2
(g3
(S'S40'
I0
I1
tRp1866
(I3
S'|'
NNNI40
I1
I0
tbS'/comic_books/comic_book_series/publisher'
tRp1867
sg1131
g1129
sg2
(g3
(S'S95'
I0
I1
tRp1868
(I3
S'|'
NNNI95
I1
I0
tbS'/award/hall_of_fame_inductee/hall_of_fame_inductions./award/hall_of_fame_induction/hall_of_fame'
tRp1869
g2
(g3
(S'S68'
I0
I1
tRp1870
(I3
S'|'
NNNI68
I1
I0
tbS'/award/hall_of_fame/inductees./award/hall_of_fame_induction/inductee'
tRp1871
sg1721
g1719
sg1341
g1339
sg1595
g1593
sg757
g755
sg1525
g1523
sg2
(g3
(S'S91'
I0
I1
tRp1872
(I3
S'|'
NNNI91
I1
I0
tbS'/religion/religious_organization/leaders./religion/religious_organization_leadership/leader'
tRp1873
g2
(g3
(S'S104'
I0
I1
tRp1874
(I3
S'|'
NNNI104
I1
I0
tbS'/religion/religious_leader/religious_leadership./religion/religious_organization_leadership/organization'
tRp1875
sg1565
g1563
sg1493
g1491
sg2
(g3
(S'S97'
I0
I1
tRp1876
(I3
S'|'
NNNI97
I1
I0
tbS'/basketball/basketball_player/former_teams./basketball/basketball_historical_roster_position/team'
tRp1877
g2
(g3
(S'S102'
I0
I1
tRp1878
(I3
S'|'
NNNI102
I1
I0
tbS'/basketball/basketball_team/historical_roster./basketball/basketball_historical_roster_position/player'
tRp1879
sg827
g825
sg295
g293
sg2
(g3
(S'S47'
I0
I1
tRp1880
(I3
S'|'
NNNI47
I1
I0
tbS'/film/film_story_contributor/film_story_credits'
tRp1881
g2
(g3
(S'S19'
I0
I1
tRp1882
(I3
S'|'
NNNI19
I1
I0
tbS'/film/film/story_by'
tRp1883
sg2
(g3
(S'S75'
I0
I1
tRp1884
(I3
S'|'
NNNI75
I1
I0
tbS'/ice_hockey/hockey_team/historical_roster./sports/sports_team_roster/player'
tRp1885
g2
(g3
(S'S74'
I0
I1
tRp1886
(I3
S'|'
NNNI74
I1
I0
tbS'/sports/pro_athlete/teams./ice_hockey/hockey_previous_roster_position/team'
tRp1887
sg19
g17
sg2
(g3
(S'S25'
I0
I1
tRp1888
(I3
S'|'
NNNI25
I1
I0
tbS'/film/film/film_festivals'
tRp1889
g2
(g3
(S'S31'
I0
I1
tRp1890
(I3
S'|'
NNNI31
I1
I0
tbS'/film/film_festival_event/films'
tRp1891
sg627
g625
sg1737
g1735
sg523
g521
sg2
(g3
(S'S39'
I0
I1
tRp1892
(I3
S'|'
NNNI39
I1
I0
tbS'/film/producer/films_executive_produced'
tRp1893
g2
(g3
(S'S32'
I0
I1
tRp1894
(I3
S'|'
NNNI32
I1
I0
tbS'/film/film/executive_produced_by'
tRp1895
sg15
g13
sg867
g865
sg1285
g1283
sg2
(g3
(S'S45'
I0
I1
tRp1896
(I3
S'|'
NNNI45
I1
I0
tbS'/protected_sites/protected_site/iucn_category'
tRp1897
g2
(g3
(S'S46'
I0
I1
tRp1898
(I3
S'|'
NNNI46
I1
I0
tbS'/protected_sites/iucn_category/protected_areas'
tRp1899
sg2
(g3
(S'S69'
I0
I1
tRp1900
(I3
S'|'
NNNI69
I1
I0
tbS'/organization/organization/leadership./organization/leadership/person'
tRp1901
g2
(g3
(S'S70'
I0
I1
tRp1902
(I3
S'|'
NNNI70
I1
I0
tbS'/business/board_member/leader_of./organization/leadership/organization'
tRp1903
sg895
g893
sg1083
g1081
sg211
g209
sg2
(g3
(S'S95'
I0
I1
tRp1904
(I3
S'|'
NNNI95
I1
I0
tbS'/olympics/olympic_participating_country/athletes./olympics/olympic_athlete_affiliation/olympics'
tRp1905
g2
(g3
(S'S78'
I0
I1
tRp1906
(I3
S'|'
NNNI78
I1
I0
tbS'/olympics/olympic_games/athletes./olympics/olympic_athlete_affiliation/country'
tRp1907
sg1859
g1857
sg95
g93
sg579
g577
sg1729
g1727
sg1887
g1885
sg1251
g1249
sg1313
g1311
sg2
(g3
(S'S61'
I0
I1
tRp1908
(I3
S'|'
NNNI61
I1
I0
tbS'/award/award_category/winners./award/award_honor/award_winner'
tRp1909
g2
(g3
(S'S55'
I0
I1
tRp1910
(I3
S'|'
NNNI55
I1
I0
tbS'/award/award_winner/awards_won./award/award_honor/award'
tRp1911
sg1847
g1845
sg2
(g3
(S'S54'
I0
I1
tRp1912
(I3
S'|'
NNNI54
I1
I0
tbS'/biology/organism_classification/lower_classifications'
tRp1913
g2
(g3
(S'S54'
I0
I1
tRp1914
(I3
S'|'
NNNI54
I1
I0
tbS'/biology/organism_classification/higher_classification'
tRp1915
sg1657
g1655
sg2
(g3
(S'S44'
I0
I1
tRp1916
(I3
S'|'
NNNI44
I1
I0
tbS'/law/court/judges./law/judicial_tenure/judge'
tRp1917
g2
(g3
(S'S44'
I0
I1
tRp1918
(I3
S'|'
NNNI44
I1
I0
tbS'/law/judge/courts./law/judicial_tenure/court'
tRp1919
sg1071
g1069
sg2
(g3
(S'S89'
I0
I1
tRp1920
(I3
S'|'
NNNI89
I1
I0
tbS'/venture_capital/venture_investor/investments./venture_capital/venture_investment/company'
tRp1921
g2
(g3
(S'S102'
I0
I1
tRp1922
(I3
S'|'
NNNI102
I1
I0
tbS'/venture_capital/venture_funded_company/venture_investors./venture_capital/venture_investment/investor'
tRp1923
sg2
(g3
(S'S103'
I0
I1
tRp1924
(I3
S'|'
NNNI103
I1
I0
tbS'/base/petbreeds/dog_breed/cities_where_this_dog_is_popular./base/petbreeds/dog_city_relationship/cities'
tRp1925
g2
(g3
(S'S89'
I0
I1
tRp1926
(I3
S'|'
NNNI89
I1
I0
tbS'/base/petbreeds/city_with_dogs/top_breeds./base/petbreeds/dog_city_relationship/dog_breed'
tRp1927
sg1843
g1841
sg1615
g1613
sg2
(g3
(S'S74'
I0
I1
tRp1928
(I3
S'|'
NNNI74
I1
I0
tbS'/base/thoroughbredracing/thoroughbred_racehorse_color/horses_of_this_color'
tRp1929
g2
(g3
(S'S53'
I0
I1
tRp1930
(I3
S'|'
NNNI53
I1
I0
tbS'/base/thoroughbredracing/thoroughbred_racehorse/color'
tRp1931
sg2
(g3
(S'S111'
I0
I1
tRp1932
(I3
S'|'
NNNI111
I1
I0
tbS'/fictional_universe/fictional_character/married_to./fictional_universe/marriage_of_fictional_characters/spouses'
tRp1933
g1933
sg805
g803
sg2
(g3
(S'S89'
I0
I1
tRp1934
(I3
S'|'
NNNI89
I1
I0
tbS'/music/performance_role/guest_performances./music/recording_contribution/performance_role'
tRp1935
g1935
sg2
(g3
(S'S42'
I0
I1
tRp1936
(I3
S'|'
NNNI42
I1
I0
tbS'/sports/sports_championship_event/champion'
tRp1937
g2
(g3
(S'S33'
I0
I1
tRp1938
(I3
S'|'
NNNI33
I1
I0
tbS'/sports/sports_team/championships'
tRp1939
sg1591
g1589
sg1775
g1773
sg2
(g3
(S'S49'
I0
I1
tRp1940
(I3
S'|'
NNNI49
I1
I0
tbS'/computer/programming_language_paradigm/languages'
tRp1941
g2
(g3
(S'S49'
I0
I1
tRp1942
(I3
S'|'
NNNI49
I1
I0
tbS'/computer/programming_language/language_paradigms'
tRp1943
sg485
g483
sg721
g719
sg1103
g1101
sg1911
g1909
sg631
g629
sg1263
g1261
sg1653
g1651
sg1553
g1551
sg2
(g3
(S'S70'
I0
I1
tRp1944
(I3
S'|'
NNNI70
I1
I0
tbS'/soccer/football_team/current_roster./sports/sports_team_roster/player'
tRp1945
g2
(g3
(S'S63'
I0
I1
tRp1946
(I3
S'|'
NNNI63
I1
I0
tbS'/sports/pro_athlete/teams./soccer/football_roster_position/team'
tRp1947
sg2
(g3
(S'S37'
I0
I1
tRp1948
(I3
S'|'
NNNI37
I1
I0
tbS'/sports/sports_team_owner/teams_owned'
tRp1949
g2
(g3
(S'S40'
I0
I1
tRp1950
(I3
S'|'
NNNI40
I1
I0
tbS'/sports/professional_sports_team/owner_s'
tRp1951
sg2
(g3
(S'S73'
I0
I1
tRp1952
(I3
S'|'
NNNI73
I1
I0
tbS'/soccer/football_team/league./soccer/football_league_participation/league'
tRp1953
g2
(g3
(S'S72'
I0
I1
tRp1954
(I3
S'|'
NNNI72
I1
I0
tbS'/soccer/football_league/teams./soccer/football_league_participation/team'
tRp1955
sg2
(g3
(S'S28'
I0
I1
tRp1956
(I3
S'|'
NNNI28
I1
I0
tbS'/broadcast/producer/produces'
tRp1957
g2
(g3
(S'S27'
I0
I1
tRp1958
(I3
S'|'
NNNI27
I1
I0
tbS'/broadcast/content/producer'
tRp1959
sg887
g885
sg135
g133
sg1661
g1659
sg1835
g1833
sg2
(g3
(S'S73'
I0
I1
tRp1960
(I3
S'|'
NNNI73
I1
I0
tbS'/sports/sports_position/players./baseball/baseball_roster_position/player'
tRp1961
g2
(g3
(S'S74'
I0
I1
tRp1962
(I3
S'|'
NNNI74
I1
I0
tbS'/baseball/baseball_player/current_team./sports/sports_team_roster/position'
tRp1963
sg1855
g1853
sg2
(g3
(S'S47'
I0
I1
tRp1964
(I3
S'|'
NNNI47
I1
I0
tbS'/fictional_universe/fictional_character/species'
tRp1965
g2
(g3
(S'S64'
I0
I1
tRp1966
(I3
S'|'
NNNI64
I1
I0
tbS'/fictional_universe/character_species/characters_of_this_species'
tRp1967
sg1201
g1199
sg2
(g3
(S'S91'
I0
I1
tRp1968
(I3
S'|'
NNNI91
I1
I0
tbS'/government/political_appointer/appointees./government/government_position_held/basic_title'
tRp1969
g2
(g3
(S'S102'
I0
I1
tRp1970
(I3
S'|'
NNNI102
I1
I0
tbS'/government/government_office_category/officeholders./government/government_position_held/appointed_by'
tRp1971
sg615
g613
sg1451
g1449
sg1289
g1287
sg765
g763
sg2
(g3
(S'S112'
I0
I1
tRp1972
(I3
S'|'
NNNI112
I1
I0
tbS'/government/government_office_category/officeholders./government/government_position_held/jurisdiction_of_office'
tRp1973
g2
(g3
(S'S106'
I0
I1
tRp1974
(I3
S'|'
NNNI106
I1
I0
tbS'/government/governmental_jurisdiction/governing_officials./government/government_position_held/basic_title'
tRp1975
sg1803
g1801
sg1439
g1437
sg1607
g1605
sg103
g101
sg1095
g1093
sg587
g585
sg1273
g1271
sg2
(g3
(S'S68'
I0
I1
tRp1976
(I3
S'|'
NNNI68
I1
I0
tbS'/location/location/adjoin_s./location/adjoining_relationship/adjoins'
tRp1977
g1977
sg1685
g1683
sg713
g711
sg951
g949
sg351
g349
sg1799
g1797
sg1971
g1969
sg1479
g1477
sg777
g775
sg2
(g3
(S'S108'
I0
I1
tRp1978
(I3
S'|'
NNNI108
I1
I0
tbS'/government/government_office_or_title/office_holders./government/government_position_held/governmental_body'
tRp1979
g2
(g3
(S'S99'
I0
I1
tRp1980
(I3
S'|'
NNNI99
I1
I0
tbS'/government/governmental_body/members./government/government_position_held/office_position_or_title'
tRp1981
sg2
(g3
(S'S75'
I0
I1
tRp1982
(I3
S'|'
NNNI75
I1
I0
tbS'/media_common/dedicatee/dedications./media_common/dedication/work_dedicated'
tRp1983
g2
(g3
(S'S77'
I0
I1
tRp1984
(I3
S'|'
NNNI77
I1
I0
tbS'/media_common/dedicated_work/dedication./media_common/dedication/dedicated_to'
tRp1985
sg1281
g1279
sg1717
g1715
sg171
g169
sg781
g779
sg1939
g1937
sg2
(g3
(S'S98'
I0
I1
tRp1986
(I3
S'|'
NNNI98
I1
I0
tbS'/base/contractbridge/bridge_player/teammates./base/contractbridge/bridge_player_teammates/teammate'
tRp1987
g1987
sg1955
g1953
sg2
(g3
(S'S98'
I0
I1
tRp1988
(I3
S'|'
NNNI98
I1
I0
tbS'/base/nobelprizes/nobel_subject_area/nobel_awards./base/nobelprizes/nobel_honor/nobel_prize_winner'
tRp1989
g2
(g3
(S'S91'
I0
I1
tRp1990
(I3
S'|'
NNNI91
I1
I0
tbS'/base/nobelprizes/nobel_prize_winner/nobel_honor./base/nobelprizes/nobel_honor/subject_area'
tRp1991
sg1831
g1829
sg151
g149
sg1177
g1175
sg1047
g1045
sg1309
g1307
sg1915
g1913
sg2
(g3
(S'S76'
I0
I1
tRp1992
(I3
S'|'
NNNI76
I1
I0
tbS'/olympics/olympic_medal/medal_winners./olympics/olympic_medal_honor/medalist'
tRp1993
g2
(g3
(S'S72'
I0
I1
tRp1994
(I3
S'|'
NNNI72
I1
I0
tbS'/olympics/olympic_athlete/medals_won./olympics/olympic_medal_honor/medal'
tRp1995
sg725
g723
sg1127
g1125
sg1819
g1817
sg819
g817
sg1011
g1009
sg2
(g3
(S'S31'
I0
I1
tRp1996
(I3
S'|'
NNNI31
I1
I0
tbS'/geography/island/body_of_water'
tRp1997
g2
(g3
(S'S32'
I0
I1
tRp1998
(I3
S'|'
NNNI32
I1
I0
tbS'/geography/body_of_water/islands'
tRp1999
sg7
g5
sg115
g113
sg1611
g1609
sg2
(g3
(S'S56'
I0
I1
tRp2000
(I3
S'|'
NNNI56
I1
I0
tbS'/metropolitan_transit/transit_service_type/transit_lines'
tRp2001
g2
(g3
(S'S47'
I0
I1
tRp2002
(I3
S'|'
NNNI47
I1
I0
tbS'/metropolitan_transit/transit_line/service_type'
tRp2003
sg2
(g3
(S'S43'
I0
I1
tRp2004
(I3
S'|'
NNNI43
I1
I0
tbS'/common/topic/webpage./common/webpage/topic'
tRp2005
g2005
sg2
(g3
(S'S21'
I0
I1
tRp2006
(I3
S'|'
NNNI21
I1
I0
tbS'/award/award/category'
tRp2007
g2
(g3
(S'S33'
I0
I1
tRp2008
(I3
S'|'
NNNI33
I1
I0
tbS'/award/award_category/category_of'
tRp2009
sg1035
g1033
sg1931
g1929
sg1705
g1703
sg1879
g1877
sg643
g641
sg1135
g1133
sg2
(g3
(S'S69'
I0
I1
tRp2010
(I3
S'|'
NNNI69
I1
I0
tbS'/award/award_ceremony/awards_presented./award/award_honor/honored_for'
tRp2011
g2
(g3
(S'S64'
I0
I1
tRp2012
(I3
S'|'
NNNI64
I1
I0
tbS'/award/award_winning_work/awards_won./award/award_honor/ceremony'
tRp2013
sg2
(g3
(S'S83'
I0
I1
tRp2014
(I3
S'|'
NNNI83
I1
I0
tbS'/award/award_nominated_work/award_nominations./award/award_nomination/nominated_for'
tRp2015
g2015
sg1217
g1215
sg219
g217
sg1075
g1073
sg2
(g3
(S'S61'
I0
I1
tRp2016
(I3
S'|'
NNNI61
I1
I0
tbS'/base/popstra/celebrity/dated./base/popstra/dated/participant'
tRp2017
g2017
sg287
g285
sg31
g29
sg1431
g1429
sg1325
g1323
sg335
g333
sg2
(g3
(S'S23'
I0
I1
tRp2018
(I3
S'|'
NNNI23
I1
I0
tbS'/tv/tv_program/episodes'
tRp2019
g2
(g3
(S'S28'
I0
I1
tRp2020
(I3
S'|'
NNNI28
I1
I0
tbS'/tv/tv_series_episode/series'
tRp2021
sg319
g317
sg1619
g1617
sg1383
g1381
sg1063
g1061
sg2
(g3
(S'S33'
I0
I1
tRp2022
(I3
S'|'
NNNI33
I1
I0
tbS'/cvg/computer_videogame/developer'
tRp2023
g2
(g3
(S'S34'
I0
I1
tRp2024
(I3
S'|'
NNNI34
I1
I0
tbS'/cvg/cvg_developer/games_developed'
tRp2025
sg591
g589
sg1409
g1407
sg1509
g1507
sg2
(g3
(S'S112'
I0
I1
tRp2026
(I3
S'|'
NNNI112
I1
I0
tbS'/government/governmental_jurisdiction/governing_officials./government/government_position_held/governmental_body'
tRp2027
g2
(g3
(S'S97'
I0
I1
tRp2028
(I3
S'|'
NNNI97
I1
I0
tbS'/government/governmental_body/members./government/government_position_held/jurisdiction_of_office'
tRp2029
sg2
(g3
(S'S34'
I0
I1
tRp2030
(I3
S'|'
NNNI34
I1
I0
tbS'/film/film/featured_film_locations'
tRp2031
g2
(g3
(S'S37'
I0
I1
tRp2032
(I3
S'|'
NNNI37
I1
I0
tbS'/film/film_location/featured_in_films'
tRp2033
sg2
(g3
(S'S50'
I0
I1
tRp2034
(I3
S'|'
NNNI50
I1
I0
tbS'/comic_books/comic_book_creator/characters_created'
tRp2035
g2
(g3
(S'S44'
I0
I1
tRp2036
(I3
S'|'
NNNI44
I1
I0
tbS'/comic_books/comic_book_character/created_by'
tRp2037
sg2
(g3
(S'S67'
I0
I1
tRp2038
(I3
S'|'
NNNI67
I1
I0
tbS'/organization/organization/leadership./organization/leadership/role'
tRp2039
g2
(g3
(S'S64'
I0
I1
tRp2040
(I3
S'|'
NNNI64
I1
I0
tbS'/organization/role/leaders./organization/leadership/organization'
tRp2041
sg2029
g2027
sg2
(g3
(S'S69'
I0
I1
tRp2042
(I3
S'|'
NNNI69
I1
I0
tbS'/fictional_universe/work_of_fiction/part_of_these_fictional_universes'
tRp2043
g2
(g3
(S'S53'
I0
I1
tRp2044
(I3
S'|'
NNNI53
I1
I0
tbS'/fictional_universe/fictional_universe/works_set_here'
tRp2045
sg2
(g3
(S'S70'
I0
I1
tRp2046
(I3
S'|'
NNNI70
I1
I0
tbS'/baseball/baseball_player/current_team./sports/sports_team_roster/team'
tRp2047
g2
(g3
(S'S68'
I0
I1
tRp2048
(I3
S'|'
NNNI68
I1
I0
tbS'/sports/sports_team/roster./baseball/baseball_roster_position/player'
tRp2049
sg1371
g1369
sg1733
g1731
sg693
g691
sg1159
g1157
sg989
g987
sg2
(g3
(S'S75'
I0
I1
tRp2050
(I3
S'|'
NNNI75
I1
I0
tbS'/baseball/baseball_team/historical_roster./sports/sports_team_roster/player'
tRp2051
g2
(g3
(S'S76'
I0
I1
tRp2052
(I3
S'|'
NNNI76
I1
I0
tbS'/sports/pro_athlete/teams./baseball/baseball_historical_roster_position/team'
tRp2053
sg741
g739
sg1689
g1687
sg27
g25
sg583
g581
sg1549
g1547
sg1665
g1663
sg2
(g3
(S'S38'
I0
I1
tRp2054
(I3
S'|'
NNNI38
I1
I0
tbS'/cvg/computer_videogame/gameplay_modes'
tRp2055
g2
(g3
(S'S39'
I0
I1
tRp2056
(I3
S'|'
NNNI39
I1
I0
tbS'/cvg/gameplay_mode/games_with_this_mode'
tRp2057
sg1337
g1335
sg2
(g3
(S'S27'
I0
I1
tRp2058
(I3
S'|'
NNNI27
I1
I0
tbS'/dining/cuisine/ingredients'
tRp2059
g2
(g3
(S'S24'
I0
I1
tRp2060
(I3
S'|'
NNNI24
I1
I0
tbS'/food/ingredient/cuisine'
tRp2061
sg903
g901
sg43
g41
sg1173
g1171
sg1951
g1949
sg2
(g3
(S'S89'
I0
I1
tRp2062
(I3
S'|'
NNNI89
I1
I0
tbS'/exhibitions/exhibition_sponsor/exhibitions_sponsored./exhibitions/exhibition_run/sponsor'
tRp2063
g2063
sg1363
g1361
sg167
g165
sg55
g53
sg2013
g2011
sg1927
g1925
sg2
(g3
(S'S72'
I0
I1
tRp2064
(I3
S'|'
NNNI72
I1
I0
tbS'/ice_hockey/hockey_team/current_roster./sports/sports_team_roster/player'
tRp2065
g2
(g3
(S'S65'
I0
I1
tRp2066
(I3
S'|'
NNNI65
I1
I0
tbS'/sports/pro_athlete/teams./ice_hockey/hockey_roster_position/team'
tRp2067
sg769
g767
sg2
(g3
(S'S48'
I0
I1
tRp2068
(I3
S'|'
NNNI48
I1
I0
tbS'/government/political_ideology/political_parties'
tRp2069
g2
(g3
(S'S36'
I0
I1
tRp2070
(I3
S'|'
NNNI36
I1
I0
tbS'/government/political_party/ideology'
tRp2071
sg959
g957
sg2067
g2065
sg899
g897
sg131
g129
sg71
g69
sg1505
g1503
sg567
g565
sg2
(g3
(S'S94'
I0
I1
tRp2072
(I3
S'|'
NNNI94
I1
I0
tbS'/tennis/tennis_tournament_champion/tennis_titles./tennis/tennis_tournament_championship/winner'
tRp2073
g2073
sg2
(g3
(S'S70'
I0
I1
tRp2074
(I3
S'|'
NNNI70
I1
I0
tbS'/book/periodical/publisher./book/periodical_publisher_period/publisher'
tRp2075
g2
(g3
(S'S93'
I0
I1
tRp2076
(I3
S'|'
NNNI93
I1
I0
tbS'/book/periodical_publisher/periodicals_published./book/periodical_publisher_period/periodical'
tRp2077
sg1235
g1233
sg1151
g1149
sg1875
g1873
sg1669
g1667
sg2
(g3
(S'S90'
I0
I1
tRp2078
(I3
S'|'
NNNI90
I1
I0
tbS'/film/personal_film_appearance_type/film_appearances./film/personal_film_appearance/person'
tRp2079
g2
(g3
(S'S96'
I0
I1
tRp2080
(I3
S'|'
NNNI96
I1
I0
tbS'/film/person_or_entity_appearing_in_film/films./film/personal_film_appearance/type_of_appearance'
tRp2081
sg1317
g1315
sg891
g889
sg2071
g2069
sg745
g743
sg2
(g3
(S'S22'
I0
I1
tRp2082
(I3
S'|'
NNNI22
I1
I0
tbS'/film/film/directed_by'
tRp2083
g2
(g3
(S'S19'
I0
I1
tRp2084
(I3
S'|'
NNNI19
I1
I0
tbS'/film/director/film'
tRp2085
sg2
(g3
(S'S48'
I0
I1
tRp2086
(I3
S'|'
NNNI48
I1
I0
tbS'/religion/religious_organization/associated_with'
tRp2087
g2
(g3
(S'S32'
I0
I1
tRp2088
(I3
S'|'
NNNI32
I1
I0
tbS'/religion/religion/organizations'
tRp2089
sg243
g241
sg1771
g1769
sg343
g341
sg1599
g1597
sg1907
g1905
sg2
(g3
(S'S69'
I0
I1
tRp2090
(I3
S'|'
NNNI69
I1
I0
tbS'/film/film_crewmember/films_crewed./film/film_crew_gig/film_crew_role'
tRp2091
g2
(g3
(S'S70'
I0
I1
tRp2092
(I3
S'|'
NNNI70
I1
I0
tbS'/film/film_job/films_with_this_crew_job./film/film_crew_gig/crewmember'
tRp2093
sg1027
g1025
sg2025
g2023
sg733
g731
sg1959
g1957
sg527
g525
sg847
g845
sg1807
g1805
sg2
(g3
(S'S33'
I0
I1
tRp2094
(I3
S'|'
NNNI33
I1
I0
tbS'/language/human_language/dialects'
tRp2095
g2
(g3
(S'S35'
I0
I1
tRp2096
(I3
S'|'
NNNI35
I1
I0
tbS'/language/language_dialect/language'
tRp2097
sg1501
g1499
sg1193
g1191
sg1579
g1577
sg2
(g3
(S'S67'
I0
I1
tRp2098
(I3
S'|'
NNNI67
I1
I0
tbS'/tv/tv_series_season/regular_cast./tv/regular_tv_appearance/seasons'
tRp2099
g2099
sg1603
g1601
sg2
(g3
(S'S30'
I0
I1
tRp2100
(I3
S'|'
NNNI30
I1
I0
tbS'/tv/tv_program/program_creator'
tRp2101
g2
(g3
(S'S39'
I0
I1
tRp2102
(I3
S'|'
NNNI39
I1
I0
tbS'/tv/tv_program_creator/programs_created'
tRp2103
sg1623
g1621
sg1713
g1711
sg2
(g3
(S'S49'
I0
I1
tRp2104
(I3
S'|'
NNNI49
I1
I0
tbS'/base/fight/crime_type/victims_of_this_crime_type'
tRp2105
g2
(g3
(S'S35'
I0
I1
tRp2106
(I3
S'|'
NNNI35
I1
I0
tbS'/base/crime/crime_victim/crime_type'
tRp2107
sg1471
g1469
sg51
g49
sg1967
g1965
sg2077
g2075
sg1091
g1089
sg1787
g1785
sg701
g699
sg2
(g3
(S'S76'
I0
I1
tRp2108
(I3
S'|'
NNNI76
I1
I0
tbS'/olympics/olympic_medal/medal_winners./olympics/olympic_medal_honor/olympics'
tRp2109
g2
(g3
(S'S74'
I0
I1
tRp2110
(I3
S'|'
NNNI74
I1
I0
tbS'/olympics/olympic_games/medals_awarded./olympics/olympic_medal_honor/medal'
tRp2111
sg2
(g3
(S'S68'
I0
I1
tRp2112
(I3
S'|'
NNNI68
I1
I0
tbS'/film/actor/dubbing_performances./film/dubbing_performance/character'
tRp2113
g2
(g3
(S'S78'
I0
I1
tRp2114
(I3
S'|'
NNNI78
I1
I0
tbS'/film/film_character/portrayed_in_films_dubbed./film/dubbing_performance/actor'
tRp2115
sg111
g109
sg1521
g1519
sg2
(g3
(S'S42'
I0
I1
tRp2116
(I3
S'|'
NNNI42
I1
I0
tbS'/aviation/airline_alliance/member_airlines'
tRp2117
g2
(g3
(S'S26'
I0
I1
tRp2118
(I3
S'|'
NNNI26
I1
I0
tbS'/aviation/airline/alliance'
tRp2119
sg1701
g1699
sg1991
g1989
sg1405
g1403
sg2
(g3
(S'S75'
I0
I1
tRp2120
(I3
S'|'
NNNI75
I1
I0
tbS'/media_common/dedicator/dedications./media_common/dedication/work_dedicated'
tRp2121
g2
(g3
(S'S77'
I0
I1
tRp2122
(I3
S'|'
NNNI77
I1
I0
tbS'/media_common/dedicated_work/dedication./media_common/dedication/dedicated_by'
tRp2123
sg2037
g2035
sg199
g197
sg2
(g3
(S'S56'
I0
I1
tRp2124
(I3
S'|'
NNNI56
I1
I0
tbS'/award/ranked_list/ranked_list_items./award/ranking/item'
tRp2125
g2
(g3
(S'S62'
I0
I1
tRp2126
(I3
S'|'
NNNI62
I1
I0
tbS'/award/ranked_item/appears_in_ranked_lists./award/ranking/list'
tRp2127
sg399
g397
sg2111
g2109
sg1571
g1569
sg2115
g2113
sg427
g425
sg1455
g1453
sg2
(g3
(S'S88'
I0
I1
tRp2128
(I3
S'|'
NNNI88
I1
I0
tbS'/basketball/basketball_position/player_roster_position./sports/sports_team_roster/player'
tRp2129
g2
(g3
(S'S73'
I0
I1
tRp2130
(I3
S'|'
NNNI73
I1
I0
tbS'/sports/pro_athlete/teams./basketball/basketball_roster_position/position'
tRp2131
sg623
g621
sg531
g529
sg1417
g1415
sg965
g963
sg1963
g1961
sg2021
g2019
sg2
(g3
(S'S76'
I0
I1
tRp2132
(I3
S'|'
NNNI76
I1
I0
tbS'/award/award_nominee/award_nominations./award/award_nomination/award_nominee'
tRp2133
g2133
sg2
(g3
(S'S41'
I0
I1
tRp2134
(I3
S'|'
NNNI41
I1
I0
tbS'/location/administrative_division/country'
tRp2135
g2
(g3
(S'S42'
I0
I1
tRp2136
(I3
S'|'
NNNI42
I1
I0
tbS'/location/country/administrative_divisions'
tRp2137
sg403
g401
sg1497
g1495
sg1975
g1973
sg395
g393
sg2049
g2047
sg919
g917
sg1397
g1395
sg2
(g3
(S'S98'
I0
I1
tRp2138
(I3
S'|'
NNNI98
I1
I0
tbS'/basketball/basketball_position/player_roster_position./basketball/basketball_roster_position/team'
tRp2139
g2
(g3
(S'S82'
I0
I1
tRp2140
(I3
S'|'
NNNI82
I1
I0
tbS'/basketball/basketball_team/roster./basketball/basketball_roster_position/position'
tRp2141
sg2
(g3
(S'S121'
I0
I1
tRp2142
(I3
S'|'
NNNI121
I1
I0
tbS'/american_football/football_team/historical_coaching_staff./american_football/football_historical_coach_position/position'
tRp2143
g2
(g3
(S'S131'
I0
I1
tRp2144
(I3
S'|'
NNNI131
I1
I0
tbS'/american_football/football_coach_position/coaches_holding_this_position./american_football/football_historical_coach_position/team'
tRp2145
sg2
(g3
(S'S92'
I0
I1
tRp2146
(I3
S'|'
NNNI92
I1
I0
tbS'/base/nobelprizes/nobel_subject_area/nobel_awards./base/nobelprizes/nobel_honor/subject_area'
tRp2147
g2147
sg2
(g3
(S'S89'
I0
I1
tRp2148
(I3
S'|'
NNNI89
I1
I0
tbS'/film/film/distributors./film/film_film_distributor_relationship/film_distribution_medium'
tRp2149
g2
(g3
(S'S109'
I0
I1
tRp2150
(I3
S'|'
NNNI109
I1
I0
tbS'/film/film_distribution_medium/films_distributed_in_this_medium./film/film_film_distributor_relationship/film'
tRp2151
sg1871
g1869
sg1147
g1145
sg2097
g2095
sg1575
g1573
sg2
(g3
(S'S70'
I0
I1
tRp2152
(I3
S'|'
NNNI70
I1
I0
tbS'/basketball/basketball_player/team./sports/sports_team_roster/position'
tRp2153
g2
(g3
(S'S77'
I0
I1
tRp2154
(I3
S'|'
NNNI77
I1
I0
tbS'/sports/sports_position/players./basketball/basketball_roster_position/player'
tRp2155
sg2
(g3
(S'S58'
I0
I1
tRp2156
(I3
S'|'
NNNI58
I1
I0
tbS'/organization/role/leaders./organization/leadership/person'
tRp2157
g2
(g3
(S'S62'
I0
I1
tRp2158
(I3
S'|'
NNNI62
I1
I0
tbS'/business/board_member/leader_of./organization/leadership/role'
tRp2159
sg2103
g2101
sg563
g561
sg1851
g1849
sg2093
g2091
sg67
g65
sg1209
g1207
sg2131
g2129
sg1995
g1993
sg1811
g1809
sg2145
g2143
sg35
g33
sg1693
g1691
sg2
(g3
(S'S50'
I0
I1
tRp2160
(I3
S'|'
NNNI50
I1
I0
tbS'/comic_books/comic_book_series/featured_characters'
tRp2161
g2
(g3
(S'S62'
I0
I1
tRp2162
(I3
S'|'
NNNI62
I1
I0
tbS'/comic_books/comic_book_character/regular_featured_appearances'
tRp2163
sg1185
g1183
sg619
g617
sg2
(g3
(S'S78'
I0
I1
tRp2164
(I3
S'|'
NNNI78
I1
I0
tbS'/baseball/baseball_player/current_team./baseball/baseball_roster_position/team'
tRp2165
g2
(g3
(S'S80'
I0
I1
tRp2166
(I3
S'|'
NNNI80
I1
I0
tbS'/baseball/baseball_team/current_roster./baseball/baseball_roster_position/player'
tRp2167
sg855
g853
sg2033
g2031
sg163
g161
sg299
g297
sg1891
g1889
sg1783
g1781
sg2
(g3
(S'S101'
I0
I1
tRp2168
(I3
S'|'
NNNI101
I1
I0
tbS'/organization/organization/involved_in_merger./organization/organization_merger/organizations_merging'
tRp2169
g2169
sg1181
g1179
sg2
(g3
(S'S43'
I0
I1
tRp2170
(I3
S'|'
NNNI43
I1
I0
tbS'/user/alexander/philosophy/era/philosophers'
tRp2171
g2
(g3
(S'S42'
I0
I1
tRp2172
(I3
S'|'
NNNI42
I1
I0
tbS'/user/alexander/philosophy/philosopher/era'
tRp2173
sg1545
g1543
sg809
g807
sg1401
g1399
sg439
g437
sg2159
g2157
sg2
(g3
(S'S21'
I0
I1
tRp2174
(I3
S'|'
NNNI21
I1
I0
tbS'/sports/sport/leagues'
tRp2175
g2
(g3
(S'S27'
I0
I1
tRp2176
(I3
S'|'
NNNI27
I1
I0
tbS'/sports/sports_league/sport'
tRp2177
sg2
(g3
(S'S25'
I0
I1
tRp2178
(I3
S'|'
NNNI25
I1
I0
tbS'/book/periodical/subjects'
tRp2179
g2
(g3
(S'S36'
I0
I1
tRp2180
(I3
S'|'
NNNI36
I1
I0
tbS'/book/periodical_subject/periodicals'
tRp2181
sg863
g861
sg2
(g3
(S'S28'
I0
I1
tRp2182
(I3
S'|'
NNNI28
I1
I0
tbS'/education/academic/advisees'
tRp2183
g2
(g3
(S'S28'
I0
I1
tRp2184
(I3
S'|'
NNNI28
I1
I0
tbS'/education/academic/advisors'
tRp2185
sg1899
g1897
sg1779
g1777
sg2085
g2083
sg1639
g1637
sg1903
g1901
sg2
(g3
(S'S78'
I0
I1
tRp2186
(I3
S'|'
NNNI78
I1
I0
tbS'/organization/organization/acquired_by./business/acquisition/acquiring_company'
tRp2187
g2
(g3
(S'S84'
I0
I1
tRp2188
(I3
S'|'
NNNI84
I1
I0
tbS'/organization/organization/companies_acquired./business/acquisition/company_acquired'
tRp2189
sg785
g783
sg2
(g3
(S'S29'
I0
I1
tRp2190
(I3
S'|'
NNNI29
I1
I0
tbS'/sports/sports_official/sport'
tRp2191
g2
(g3
(S'S23'
I0
I1
tRp2192
(I3
S'|'
NNNI23
I1
I0
tbS'/sports/sport/officials'
tRp2193
sg411
g409
sg1709
g1707
sg2
(g3
(S'S68'
I0
I1
tRp2194
(I3
S'|'
NNNI68
I1
I0
tbS'/award/award_winning_work/awards_won./award/award_honor/award_winner'
tRp2195
g2
(g3
(S'S61'
I0
I1
tRp2196
(I3
S'|'
NNNI61
I1
I0
tbS'/award/award_winner/awards_won./award/award_honor/honored_for'
tRp2197
sg1557
g1555
sg449
g447
sg2107
g2105
sg2123
g2121
sg705
g703
sg1443
g1441
sg539
g537
sg1863
g1861
sg2189
g2187
sg1243
g1241
sg1867
g1865
sg2089
g2087
sg2081
g2079
sg789
g787
sg407
g405
sg1839
g1837
sg993
g991
sg1389
g1387
sg2
(g3
(S'S26'
I0
I1
tRp2198
(I3
S'|'
NNNI26
I1
I0
tbS'/dining/restaurant/cuisine'
tRp2199
g2
(g3
(S'S26'
I0
I1
tRp2200
(I3
S'|'
NNNI26
I1
I0
tbS'/dining/cuisine/restaurant'
tRp2201
sg2173
g2171
sg2003
g2001
sg2
(g3
(S'S90'
I0
I1
tRp2202
(I3
S'|'
NNNI90
I1
I0
tbS'/royalty/chivalric_order_member/belongs_to_order./royalty/chivalric_order_membership/order'
tRp2203
g2
(g3
(S'S83'
I0
I1
tRp2204
(I3
S'|'
NNNI83
I1
I0
tbS'/royalty/order_of_chivalry/recipients./royalty/chivalric_order_membership/recipient'
tRp2205
sg1367
g1365
sg1681
g1679
sg1435
g1433
sg1221
g1219
sg1999
g1997
sg2167
g2165
sg2193
g2191
sg1753
g1751
sg431
g429
sg685
g683
sg2045
g2043
sg2
(g3
(S'S55'
I0
I1
tRp2206
(I3
S'|'
NNNI55
I1
I0
tbS'/military/military_conflict/military_personnel_involved'
tRp2207
g2
(g3
(S'S51'
I0
I1
tRp2208
(I3
S'|'
NNNI51
I1
I0
tbS'/military/military_person/participated_in_conflicts'
tRp2209
sg815
g813
sg347
g345
sg2181
g2179
sg2177
g2175
sg1947
g1945
sg761
g759
sg1427
g1425
sg367
g365
sg1561
g1559
sg435
g433
sg2
(g3
(S'S95'
I0
I1
tRp2210
(I3
S'|'
NNNI95
I1
I0
tbS'/base/fight/crime_type/people_convicted_of_this_crime./base/crime/criminal_conviction/guilty_of'
tRp2211
g2211
sg1259
g1257
sg2151
g2149
sg2119
g2117
sg2041
g2039
sg1883
g1881
sg939
g937
sg2163
g2161
sg1059
g1057
sg1919
g1917
sg1985
g1983
sg2127
g2125
sg1943
g1941
sg2209
g2207
sg477
g475
sg749
g747
sg2
(g3
(S'S81'
I0
I1
tRp2212
(I3
S'|'
NNNI81
I1
I0
tbS'/military/military_combatant/force_deployments./military/force_strength/combatant'
tRp2213
g2213
sg657
g655
sg507
g505
sg2057
g2055
sg2
(g3
(S'S71'
I0
I1
tRp2214
(I3
S'|'
NNNI71
I1
I0
tbS'/base/popstra/celebrity/friendship./base/popstra/friendship/participant'
tRp2215
g2215
sg2141
g2139
sg907
g905
sg2
(g3
(S'S95'
I0
I1
tRp2216
(I3
S'|'
NNNI95
I1
I0
tbS'/travel/transport_operator/travel_destinations_served./travel/transportation/transport_operator'
tRp2217
g2217
sg1213
g1211
sg1375
g1373
sg1345
g1343
sg2
(g3
(S'S88'
I0
I1
tRp2218
(I3
S'|'
NNNI88
I1
I0
tbS'/celebrities/celebrity/sexual_relationships./celebrities/romantic_relationship/celebrity'
tRp2219
g2219
sg1583
g1581
sg697
g695
sg1795
g1793
sg2201
g2199
sg1725
g1723
sg2061
g2059
sg2205
g2203
sg1529
g1527
sg2155
g2153
sg1355
g1353
sg1643
g1641
sg2
(g3
(S'S61'
I0
I1
tRp2220
(I3
S'|'
NNNI61
I1
I0
tbS'/sports/pro_athlete/teams./sports/sports_team_roster/position'
tRp2221
g2
(g3
(S'S65'
I0
I1
tRp2222
(I3
S'|'
NNNI65
I1
I0
tbS'/sports/sports_position/players./sports/sports_team_roster/player'
tRp2223
sg607
g605
sg1647
g1645
sg2137
g2135
sg2223
g2221
sg575
g573
sg2009
g2007
sg1765
g1763
sg1895
g1893
sg1123
g1121
sg453
g451
sg1981
g1979
sg493
g491
sg1757
g1755
sg1823
g1821
sg2053
g2051
sg2
(g3
(S'S74'
I0
I1
tRp2224
(I3
S'|'
NNNI74
I1
I0
tbS'/military/rank/used_by_services./military/military_service/military_person'
tRp2225
g2
(g3
(S'S65'
I0
I1
tRp2226
(I3
S'|'
NNNI65
I1
I0
tbS'/military/military_person/service./military/military_service/rank'
tRp2227
sg1923
g1921
sg1815
g1813
sg2185
g2183
sg2197
g2195
sg1119
g1117
sg2227
g2225
sg547
g545
s.