(dp1
I40960
I40960
sI40944
I40944
sI40945
I40955
sI40946
I40947
sI40947
I40946
sI40948
I40949
sI40949
I40948
sI40950
I40951
sI40951
I40950
sI40952
I40957
sI40953
I40958
sI40954
I40959
sI40955
I40945
sI40956
I40956
sI40957
I40952
sI40958
I40953
sI40959
I40954
s.