(dp1
I15919
I16261
sI16141
I16077
sI14956
I16130
sI14957
I14974
sI14958
I16108
sI14959
I16128
sI14961
I14980
sI15484
I15490
sI14973
I16111
sI14974
I14957
sI14978
I16062
sI14979
I16110
sI14980
I14961
sI16116
I16072
sI16040
I16118
sI16041
I16143
sI16042
I16047
sI16043
I16143
sI16045
I15217
sI16046
I16118
sI16047
I16074
sI16048
I16077
sI16049
I16119
sI16050
I16077
sI16061
I16108
sI16062
I16128
sI16064
I16130
sI16065
I16132
sI16066
I16112
sI16067
I16133
sI16068
I16135
sI16069
I16114
sI16070
I16136
sI16071
I16138
sI16072
I16116
sI16073
I16139
sI16074
I16118
sI16075
I16143
sI16077
I16141
sI16084
I15125
sI14972
I16064
sI16108
I16061
sI16109
I16121
sI16110
I16129
sI16111
I16131
sI16112
I16066
sI16113
I16134
sI16114
I16069
sI16115
I16137
sI15092
I15098
sI16117
I16140
sI15094
I15096
sI15095
I15097
sI15096
I15094
sI15097
I15095
sI15098
I15092
sI16128
I16062
sI16129
I16110
sI16130
I16064
sI16131
I16111
sI16132
I16065
sI16133
I16067
sI16134
I16113
sI16135
I16068
sI16136
I16070
sI16137
I16115
sI16138
I16071
sI16139
I16073
sI16140
I16117
sI15490
I15484
sI16142
I16119
sI16143
I16075
sI15125
I16084
sI16261
I15919
sI15154
I15266
sI15156
I15264
sI15696
I16116
sI15697
I16139
sI15698
I15703
sI15699
I15706
sI15700
I16138
sI15701
I15709
sI15702
I16116
sI15703
I16072
sI15704
I16073
sI15705
I16117
sI15706
I15699
sI15708
I16071
sI15709
I15701
sI16226
I16247
sI16230
I16246
sI15217
I16045
sI16246
I16230
sI15223
I16132
sI15224
I16112
sI15225
I16133
sI15227
I15237
sI15228
I16132
sI15229
I15240
sI15235
I16067
sI15236
I16113
sI15237
I15227
sI15239
I16065
sI15240
I15229
sI15243
I16135
sI15244
I15257
sI15247
I16114
sI15248
I16136
sI15249
I15253
sI15250
I15260
sI15251
I16069
sI15252
I16137
sI15253
I15249
sI15254
I15261
sI15256
I16068
sI15257
I15244
sI15258
I16070
sI15259
I16115
sI15260
I15250
sI15261
I15254
sI15262
I15273
sI15264
I15156
sI15266
I15154
sI15269
I15272
sI15272
I15269
sI15273
I15262
sI15090
I15096
sI15288
I15293
sI15289
I15290
sI15290
I15289
sI15293
I15288
sI16118
I16074
sI16119
I16142
sI16121
I16109
sI16247
I16226
s.