(dp1
I16261
I15905
sI15905
I16261
sI15920
I15464
sI16141
I16143
sI15464
I15920
sI14955
I16063
sI14956
I16064
sI14957
I16064
sI14958
I16061
sI14959
I16062
sI14960
I16061
sI14961
I16062
sI14962
I14969
sI14963
I14970
sI14964
I14962
sI14969
I14962
sI14970
I14963
sI14972
I16130
sI14973
I16131
sI14974
I16130
sI14975
I16131
sI14978
I16128
sI14979
I16129
sI14980
I16128
sI14981
I16129
sI16116
I15703
sI16040
I16074
sI16041
I16077
sI16042
I16074
sI16043
I16077
sI16045
I15214
sI16046
I16074
sI16047
I16118
sI16048
I16143
sI16049
I16142
sI16050
I16143
sI16051
I16142
sI16061
I14960
sI16062
I14961
sI16063
I14955
sI16064
I14957
sI16065
I15229
sI16066
I15226
sI16067
I15227
sI16068
I15244
sI16069
I15249
sI16070
I15250
sI16071
I15701
sI16072
I15702
sI16073
I15699
sI16074
I16046
sI15563
I15198
sI16077
I16075
sI15484
I15490
sI16107
I15125
sI16109
I16121
sI15090
I15096
sI16115
I15254
sI15092
I15095
sI15094
I15096
sI15095
I15092
sI15096
I15094
sI15097
I15098
sI15098
I15097
sI16128
I14980
sI16129
I14981
sI16130
I14974
sI16131
I14975
sI16132
I15240
sI16133
I15237
sI16134
I15238
sI16135
I15257
sI16136
I15260
sI16137
I15261
sI16138
I15709
sI16139
I15706
sI16140
I15707
sI15490
I15484
sI16142
I16051
sI16143
I16141
sI15125
I16107
sI15748
I15752
sI15749
I15752
sI15750
I15752
sI15751
I15752
sI15752
I15751
sI15154
I15264
sI15156
I15266
sI15696
I16072
sI15697
I16073
sI15698
I16072
sI15699
I16073
sI15700
I16071
sI15701
I16071
sI15702
I16072
sI15703
I16116
sI15704
I16139
sI15705
I16140
sI15706
I16139
sI15707
I16140
sI15708
I16138
sI15709
I16138
sI15198
I15563
sI16226
I16230
sI16230
I16226
sI15214
I16045
sI16246
I16247
sI15223
I16065
sI15224
I16066
sI15225
I16067
sI15226
I16066
sI15227
I16067
sI15228
I16065
sI15229
I16065
sI15235
I16133
sI15236
I16134
sI15237
I16133
sI15238
I16134
sI15239
I16132
sI15240
I16132
sI15243
I16068
sI15244
I16068
sI15247
I16069
sI15248
I16070
sI15249
I16069
sI15250
I16070
sI15251
I16114
sI15252
I16115
sI15253
I16114
sI15254
I16115
sI15769
I15771
sI15256
I16135
sI15257
I16135
sI15258
I16136
sI15259
I16137
sI15260
I16136
sI15261
I16137
sI15262
I15272
sI15264
I15154
sI15777
I15780
sI15266
I15156
sI15771
I15770
sI15780
I15779
sI15269
I15273
sI15272
I15262
sI15273
I15269
sI16114
I15253
sI15288
I15290
sI15289
I15293
sI15290
I15288
sI15293
I15289
sI15776
I15780
sI15768
I15769
sI16118
I16047
sI16075
I16077
sI15778
I15780
sI15779
I15780
sI16121
I16109
sI15325
I15334
sI15326
I15333
sI15327
I15333
sI15328
I15333
sI15330
I15333
sI15332
I15334
sI15333
I15330
sI15334
I15332
sI16247
I16246
sI15770
I15771
s.